; Listing generated by Microsoft (R) Optimizing Compiler Version 19.41.34123.0 

include listing.inc

INCLUDELIB LIBCMT
INCLUDELIB OLDNAMES

PUBLIC	?kernel32_str@@3PA_WA				; kernel32_str
PUBLIC	?load_lib_str@@3PADA				; load_lib_str
PUBLIC	?kernel32_dll_name@@3PA_WA			; kernel32_dll_name
PUBLIC	?load_lib_name@@3PADA				; load_lib_name
PUBLIC	?get_proc_name@@3PADA				; get_proc_name
PUBLIC	?kr32_dll_name@@3PADA				; kr32_dll_name
PUBLIC	?user32_dll_name@@3PADA				; user32_dll_name
PUBLIC	?ucrtbase_dll_name@@3PADA			; ucrtbase_dll_name
PUBLIC	?message_box_name@@3PADA			; message_box_name
PUBLIC	?cf_name@@3PADA					; cf_name
PUBLIC	?rf_name@@3PADA					; rf_name
PUBLIC	?close_handle_name@@3PADA			; close_handle_name
PUBLIC	?mb_to_wc_name@@3PADA				; mb_to_wc_name
PUBLIC	?strncmp_name@@3PADA				; strncmp_name
PUBLIC	?get_file_size_name@@3PADA			; get_file_size_name
PUBLIC	?map_view_of_file_name@@3PADA			; map_view_of_file_name
PUBLIC	?unmap_view_of_file_name@@3PADA			; unmap_view_of_file_name
PUBLIC	?create_file_mapping_name@@3PADA		; create_file_mapping_name
PUBLIC	?msg_content@@3PA_WA				; msg_content
PUBLIC	?msg_title@@3PA_WA				; msg_title
PUBLIC	?fileName@@3PADA				; fileName
PUBLIC	?fileName_vic@@3PADA				; fileName_vic
PUBLIC	?func_name@@3PADA				; func_name
PUBLIC	?buffer@@3PADA					; buffer
PUBLIC	?bytesRead@@3KA					; bytesRead
PUBLIC	?wide_buffer@@3PA_WA				; wide_buffer
PUBLIC	?malloc_name@@3PADA				; malloc_name
PUBLIC	?memcpy_name@@3PADA				; memcpy_name
PUBLIC	?_LoadLibraryA@@3P6APEAUHINSTANCE__@@PEBD@ZEA	; _LoadLibraryA
PUBLIC	?_GetProcAddress@@3P6AP6A_JXZPEAUHINSTANCE__@@PEBD@ZEA ; _GetProcAddress
PUBLIC	?_GetFileSize@@3P6AKPEAXPEAK@ZEA		; _GetFileSize
PUBLIC	?_MapViewOfFile@@3P6APEAXPEAXKKK_K@ZEA		; _MapViewOfFile
PUBLIC	?_UnmapViewOfFile@@3P6AHPEBX@ZEA		; _UnmapViewOfFile
PUBLIC	?_CreateFileMappingA@@3P6APEAXPEAXPEAU_SECURITY_ATTRIBUTES@@KKKPEBD@ZEA ; _CreateFileMappingA
PUBLIC	?_ReadFile@@3P6AHPEAX0KPEAKPEAU_OVERLAPPED@@@ZEA ; _ReadFile
PUBLIC	?_MessageBoxW@@3P6AHPEAUHWND__@@PEB_W1I@ZEA	; _MessageBoxW
PUBLIC	?_MultiByteToWideChar@@3P6AHIKPEBDHPEA_WH@ZEA	; _MultiByteToWideChar
PUBLIC	?_CloseHandle@@3P6AHPEAX@ZEA			; _CloseHandle
PUBLIC	?_strncmp@@3P6AHPEBD0_K@ZEA			; _strncmp
PUBLIC	?_strcpy_s@@3P6AHPEAD_KPEBD@ZEA			; _strcpy_s
PUBLIC	?_ZeroMemory@@3P6AXPEAX_K@ZEA			; _ZeroMemory
PUBLIC	?_SetFilePointer@@3P6AKPEAXJPEAJK@ZEA		; _SetFilePointer
PUBLIC	?_SetEndOfFile@@3P6AHPEAX@ZEA			; _SetEndOfFile
PUBLIC	?_malloc@@3P6APEAX_K@ZEA			; _malloc
PUBLIC	?_memcpy@@3P6APEAXPEAXPEBX_K@ZEA		; _memcpy
PUBLIC	?_CreateFileA@@3P6APEAXPEBDKKPEAU_SECURITY_ATTRIBUTES@@KKPEAX@ZEA ; _CreateFileA
PUBLIC	?_WriteFile@@3P6AHPEAXPEBXKPEAKPEAU_OVERLAPPED@@@ZEA ; _WriteFile
PUBLIC	?_memset@@3P6APEAXPEAXH_K@ZEA			; _memset
PUBLIC	?_FlushViewOfFile@@3P6AHPEBX_K@ZEA		; _FlushViewOfFile
PUBLIC	?_GetLastError@@3P6AKXZEA			; _GetLastError
_BSS	SEGMENT
?buffer@@3PADA DB 040H DUP (?)				; buffer
?bytesRead@@3KA DD 01H DUP (?)				; bytesRead
?wide_buffer@@3PA_WA DW 040H DUP (?)			; wide_buffer
	ALIGN	8

?_LoadLibraryA@@3P6APEAUHINSTANCE__@@PEBD@ZEA DQ 01H DUP (?) ; _LoadLibraryA
?_GetProcAddress@@3P6AP6A_JXZPEAUHINSTANCE__@@PEBD@ZEA DQ 01H DUP (?) ; _GetProcAddress
?_GetFileSize@@3P6AKPEAXPEAK@ZEA DQ 01H DUP (?)		; _GetFileSize
?_MapViewOfFile@@3P6APEAXPEAXKKK_K@ZEA DQ 01H DUP (?)	; _MapViewOfFile
?_UnmapViewOfFile@@3P6AHPEBX@ZEA DQ 01H DUP (?)		; _UnmapViewOfFile
?_CreateFileMappingA@@3P6APEAXPEAXPEAU_SECURITY_ATTRIBUTES@@KKKPEBD@ZEA DQ 01H DUP (?) ; _CreateFileMappingA
?_ReadFile@@3P6AHPEAX0KPEAKPEAU_OVERLAPPED@@@ZEA DQ 01H DUP (?) ; _ReadFile
?_MessageBoxW@@3P6AHPEAUHWND__@@PEB_W1I@ZEA DQ 01H DUP (?) ; _MessageBoxW
?_MultiByteToWideChar@@3P6AHIKPEBDHPEA_WH@ZEA DQ 01H DUP (?) ; _MultiByteToWideChar
?_CloseHandle@@3P6AHPEAX@ZEA DQ 01H DUP (?)		; _CloseHandle
?_strncmp@@3P6AHPEBD0_K@ZEA DQ 01H DUP (?)		; _strncmp
?_strcpy_s@@3P6AHPEAD_KPEBD@ZEA DQ 01H DUP (?)		; _strcpy_s
?_ZeroMemory@@3P6AXPEAX_K@ZEA DQ 01H DUP (?)		; _ZeroMemory
?_SetFilePointer@@3P6AKPEAXJPEAJK@ZEA DQ 01H DUP (?)	; _SetFilePointer
?_SetEndOfFile@@3P6AHPEAX@ZEA DQ 01H DUP (?)		; _SetEndOfFile
?_malloc@@3P6APEAX_K@ZEA DQ 01H DUP (?)			; _malloc
?_memcpy@@3P6APEAXPEAXPEBX_K@ZEA DQ 01H DUP (?)		; _memcpy
?_CreateFileA@@3P6APEAXPEBDKKPEAU_SECURITY_ATTRIBUTES@@KKPEAX@ZEA DQ 01H DUP (?) ; _CreateFileA
?_WriteFile@@3P6AHPEAXPEBXKPEAKPEAU_OVERLAPPED@@@ZEA DQ 01H DUP (?) ; _WriteFile
?_memset@@3P6APEAXPEAXH_K@ZEA DQ 01H DUP (?)		; _memset
?_FlushViewOfFile@@3P6AHPEBX_K@ZEA DQ 01H DUP (?)	; _FlushViewOfFile
?_GetLastError@@3P6AKXZEA DQ 01H DUP (?)		; _GetLastError
_BSS	ENDS
CONST	SEGMENT
$SG119143 DB	'CreateFileA', 00H
?_Fake_alloc@std@@3U_Fake_allocator@1@B	ORG $+1		; std::_Fake_alloc
	ORG $+3
$SG119144 DB	'strcpy_s', 00H
	ORG $+7
$SG119145 DB	'ZeroMemory', 00H
	ORG $+5
$SG119146 DB	'SetFilePointer', 00H
	ORG $+1
$SG119147 DB	'SetEndOfFile', 00H
	ORG $+3
$SG119148 DB	'WriteFile', 00H
	ORG $+6
$SG119149 DB	'FlushViewOfFile', 00H
$SG119150 DB	'memset', 00H
	ORG $+1
$SG119151 DB	'GetLastError', 00H
	ORG $+3
$SG119815 DB	'E', 00H, 'r', 00H, 'r', 00H, 'o', 00H, 'r', 00H, ' ', 00H
	DB	'o', 00H, 'c', 00H, 'c', 00H, 'u', 00H, 'r', 00H, 'r', 00H, 'e'
	DB	00H, 'd', 00H, '.', 00H, ' ', 00H, 'E', 00H, 'r', 00H, 'r', 00H
	DB	'o', 00H, 'r', 00H, ' ', 00H, 'c', 00H, 'o', 00H, 'd', 00H, 'e'
	DB	00H, ':', 00H, ' ', 00H, 00H, 00H
	ORG $+6
$SG119816 DB	'E', 00H, 'r', 00H, 'r', 00H, 'o', 00H, 'r', 00H, 00H, 00H
	ORG $+4
$SG119851 DB	'E', 00H, 'r', 00H, 'r', 00H, 'o', 00H, 'r', 00H, 00H, 00H
	ORG $+4
$SG119852 DB	'E', 00H, 'r', 00H, 'r', 00H, 'o', 00H, 'r', 00H, ' ', 00H
	DB	'c', 00H, 'r', 00H, 'e', 00H, 'a', 00H, 't', 00H, 'i', 00H, 'n'
	DB	00H, 'g', 00H, ' ', 00H, 'f', 00H, 'i', 00H, 'l', 00H, 'e', 00H
	DB	' ', 00H, 'm', 00H, 'a', 00H, 'p', 00H, 'p', 00H, 'i', 00H, 'n'
	DB	00H, 'g', 00H, '.', 00H, 00H, 00H
	ORG $+6
$SG119853 DB	'D', 00H, 'e', 00H, 'b', 00H, 'u', 00H, 'g', 00H, 'g', 00H
	DB	'i', 00H, 'n', 00H, 'g', 00H, 00H, 00H
	ORG $+4
$SG119854 DB	'h', 00H, 'M', 00H, 'a', 00H, 'p', 00H, 'p', 00H, 'i', 00H
	DB	'n', 00H, 'g', 00H, ' ', 00H, 'c', 00H, 'r', 00H, 'e', 00H, 'a'
	DB	00H, 't', 00H, 'e', 00H, 'd', 00H, 00H, 00H
	ORG $+6
$SG119856 DB	'E', 00H, 'r', 00H, 'r', 00H, 'o', 00H, 'r', 00H, 00H, 00H
	ORG $+4
$SG119857 DB	'E', 00H, 'r', 00H, 'r', 00H, 'o', 00H, 'r', 00H, ' ', 00H
	DB	'm', 00H, 'a', 00H, 'p', 00H, 'p', 00H, 'i', 00H, 'n', 00H, 'g'
	DB	00H, ' ', 00H, 'f', 00H, 'i', 00H, 'l', 00H, 'e', 00H, ' ', 00H
	DB	't', 00H, 'o', 00H, ' ', 00H, 'm', 00H, 'e', 00H, 'm', 00H, 'o'
	DB	00H, 'r', 00H, 'y', 00H, '.', 00H, 00H, 00H
	ORG $+4
$SG119858 DB	'D', 00H, 'e', 00H, 'b', 00H, 'u', 00H, 'g', 00H, 'g', 00H
	DB	'i', 00H, 'n', 00H, 'g', 00H, 00H, 00H
	ORG $+4
$SG119859 DB	'F', 00H, 'i', 00H, 'l', 00H, 'e', 00H, ' ', 00H, 'm', 00H
	DB	'a', 00H, 'p', 00H, 'p', 00H, 'e', 00H, 'd', 00H, ' ', 00H, 't'
	DB	00H, 'o', 00H, ' ', 00H, 'm', 00H, 'e', 00H, 'm', 00H, 'o', 00H
	DB	'r', 00H, 'y', 00H, 00H, 00H
	ORG $+4
$SG119861 DB	'E', 00H, 'r', 00H, 'r', 00H, 'o', 00H, 'r', 00H, 00H, 00H
	ORG $+4
$SG119862 DB	'I', 00H, 'n', 00H, 'v', 00H, 'a', 00H, 'l', 00H, 'i', 00H
	DB	'd', 00H, ' ', 00H, 'P', 00H, 'E', 00H, ' ', 00H, 'f', 00H, 'i'
	DB	00H, 'l', 00H, 'e', 00H, ' ', 00H, '(', 00H, 'D', 00H, 'O', 00H
	DB	'S', 00H, ' ', 00H, 's', 00H, 'i', 00H, 'g', 00H, 'n', 00H, 'a'
	DB	00H, 't', 00H, 'u', 00H, 'r', 00H, 'e', 00H, ' ', 00H, 'c', 00H
	DB	'h', 00H, 'e', 00H, 'c', 00H, 'k', 00H, ' ', 00H, 'f', 00H, 'a'
	DB	00H, 'i', 00H, 'l', 00H, 'e', 00H, 'd', 00H, ')', 00H, '.', 00H
	DB	00H, 00H
	ORG $+4
$SG119863 DB	'D', 00H, 'e', 00H, 'b', 00H, 'u', 00H, 'g', 00H, 'g', 00H
	DB	'i', 00H, 'n', 00H, 'g', 00H, 00H, 00H
	ORG $+4
$SG119864 DB	'D', 00H, 'O', 00H, 'S', 00H, ' ', 00H, 's', 00H, 'i', 00H
	DB	'g', 00H, 'n', 00H, 'a', 00H, 't', 00H, 'u', 00H, 'r', 00H, 'e'
	DB	00H, ' ', 00H, 'e', 00H, 'x', 00H, 'i', 00H, 's', 00H, 't', 00H
	DB	's', 00H, 00H, 00H
	ORG $+6
$SG119866 DB	'E', 00H, 'r', 00H, 'r', 00H, 'o', 00H, 'r', 00H, 00H, 00H
$SG119915 DB	'.text', 00H
	ORG $+6
$SG119867 DB	'I', 00H, 'n', 00H, 'v', 00H, 'a', 00H, 'l', 00H, 'i', 00H
	DB	'd', 00H, ' ', 00H, 'P', 00H, 'E', 00H, ' ', 00H, 'f', 00H, 'i'
	DB	00H, 'l', 00H, 'e', 00H, ' ', 00H, '(', 00H, 'N', 00H, 'T', 00H
	DB	' ', 00H, 's', 00H, 'i', 00H, 'g', 00H, 'n', 00H, 'a', 00H, 't'
	DB	00H, 'u', 00H, 'r', 00H, 'e', 00H, ' ', 00H, 'c', 00H, 'h', 00H
	DB	'e', 00H, 'c', 00H, 'k', 00H, ' ', 00H, 'f', 00H, 'a', 00H, 'i'
	DB	00H, 'l', 00H, 'e', 00H, 'd', 00H, ')', 00H, '.', 00H, 00H, 00H
	ORG $+6
$SG119868 DB	'D', 00H, 'e', 00H, 'b', 00H, 'u', 00H, 'g', 00H, 'g', 00H
	DB	'i', 00H, 'n', 00H, 'g', 00H, 00H, 00H
	ORG $+4
$SG119869 DB	'N', 00H, 'T', 00H, ' ', 00H, 's', 00H, 'i', 00H, 'g', 00H
	DB	'n', 00H, 'a', 00H, 't', 00H, 'u', 00H, 'r', 00H, 'e', 00H, ' '
	DB	00H, 'e', 00H, 'x', 00H, 'i', 00H, 's', 00H, 't', 00H, 's', 00H
	DB	00H, 00H
$SG119870 DB	'D', 00H, 'e', 00H, 'b', 00H, 'u', 00H, 'g', 00H, 'g', 00H
	DB	'i', 00H, 'n', 00H, 'g', 00H, 00H, 00H
	ORG $+4
$SG119871 DB	'N', 00H, 'e', 00H, 'w', 00H, ' ', 00H, 'S', 00H, 'e', 00H
	DB	'c', 00H, 't', 00H, 'i', 00H, 'o', 00H, 'n', 00H, ' ', 00H, 'C'
	DB	00H, 'r', 00H, 'e', 00H, 'a', 00H, 't', 00H, 'e', 00H, 'd', 00H
	DB	00H, 00H
$SG119872 DB	'D', 00H, 'e', 00H, 'b', 00H, 'u', 00H, 'g', 00H, 'g', 00H
	DB	'i', 00H, 'n', 00H, 'g', 00H, 00H, 00H
	ORG $+4
$SG119873 DB	'm', 00H, 'e', 00H, 'm', 00H, 's', 00H, 'e', 00H, 't', 00H
	DB	00H, 00H
	ORG $+2
$SG119874 DB	'.shell', 00H
	ORG $+1
$SG119876 DB	'E', 00H, 'r', 00H, 'r', 00H, 'o', 00H, 'r', 00H, 00H, 00H
	ORG $+4
$SG119877 DB	'E', 00H, 'r', 00H, 'r', 00H, 'o', 00H, 'r', 00H, ' ', 00H
	DB	's', 00H, 'e', 00H, 't', 00H, 't', 00H, 'i', 00H, 'n', 00H, 'g'
	DB	00H, ' ', 00H, 'f', 00H, 'i', 00H, 'l', 00H, 'e', 00H, ' ', 00H
	DB	'p', 00H, 'o', 00H, 'i', 00H, 'n', 00H, 't', 00H, 'e', 00H, 'r'
	DB	00H, '.', 00H, ' ', 00H, 00H, 00H
	ORG $+6
$SG119879 DB	'E', 00H, 'r', 00H, 'r', 00H, 'o', 00H, 'r', 00H, 00H, 00H
	ORG $+4
$SG119880 DB	'M', 00H, 'a', 00H, 'p', 00H, 'p', 00H, 'i', 00H, 'n', 00H
	DB	'g', 00H, ' ', 00H, 'f', 00H, 'a', 00H, 'i', 00H, 'l', 00H, 'e'
	DB	00H, 'd', 00H, ':', 00H, ' ', 00H, 'p', 00H, 'B', 00H, 'a', 00H
	DB	's', 00H, 'e', 00H, ' ', 00H, 'i', 00H, 's', 00H, ' ', 00H, 'n'
	DB	00H, 'u', 00H, 'l', 00H, 'l', 00H, '.', 00H, 00H, 00H
	ORG $+2
$SG119885 DB	'E', 00H, 'r', 00H, 'r', 00H, 'o', 00H, 'r', 00H, 00H, 00H
	ORG $+4
$SG119886 DB	'F', 00H, 'a', 00H, 'i', 00H, 'l', 00H, 'e', 00H, 'd', 00H
	DB	' ', 00H, 't', 00H, 'o', 00H, ' ', 00H, 'w', 00H, 'r', 00H, 'i'
	DB	00H, 't', 00H, 'e', 00H, ' ', 00H, 't', 00H, 'o', 00H, ' ', 00H
	DB	'f', 00H, 'i', 00H, 'l', 00H, 'e', 00H, '.', 00H, ' ', 00H, 'E'
	DB	00H, 'r', 00H, 'r', 00H, 'o', 00H, 'r', 00H, ' ', 00H, 'c', 00H
	DB	'o', 00H, 'd', 00H, 'e', 00H, ':', 00H, ' ', 00H, 00H, 00H
	ORG $+4
$SG119887 DB	'S', 00H, 'u', 00H, 'c', 00H, 'c', 00H, 'e', 00H, 's', 00H
	DB	's', 00H, 00H, 00H
$SG119888 DB	'P', 00H, 'E', 00H, ' ', 00H, 'F', 00H, 'i', 00H, 'l', 00H
	DB	'e', 00H, ' ', 00H, 'm', 00H, 'o', 00H, 'd', 00H, 'i', 00H, 'f'
	DB	00H, 'i', 00H, 'e', 00H, 'd', 00H, ' ', 00H, 's', 00H, 'u', 00H
	DB	'c', 00H, 'c', 00H, 'e', 00H, 's', 00H, 's', 00H, 'f', 00H, 'u'
	DB	00H, 'l', 00H, 'l', 00H, 'y', 00H, '.', 00H, 00H, 00H
	ORG $+2
$SG119934 DB	'D', 00H, 'e', 00H, 'p', 00H, 'u', 00H, 'r', 00H, 'a', 00H
	DB	'c', 00H, 'i', 00H, 'o', 00H, 'n', 00H, 00H, 00H
	ORG $+2
$SG119935 DB	'I', 00H, 'n', 00H, 'i', 00H, 'c', 00H, 'i', 00H, 'o', 00H
	DB	00H, 00H
	ORG $+2
$SG119937 DB	'E', 00H, 'r', 00H, 'r', 00H, 'o', 00H, 'r', 00H, 00H, 00H
	ORG $+4
$SG119938 DB	'E', 00H, 'r', 00H, 'r', 00H, 'o', 00H, 'r', 00H, ' ', 00H
	DB	'a', 00H, 'l', 00H, ' ', 00H, 'a', 00H, 'b', 00H, 'r', 00H, 'i'
	DB	00H, 'r', 00H, ' ', 00H, 'e', 00H, 'l', 00H, ' ', 00H, 'a', 00H
	DB	'r', 00H, 'c', 00H, 'h', 00H, 'i', 00H, 'v', 00H, 'o', 00H, 00H
	DB	00H
	ORG $+4
$SG119939 DB	'D', 00H, 'e', 00H, 'p', 00H, 'u', 00H, 'r', 00H, 'a', 00H
	DB	'c', 00H, 'i', 00H, 'o', 00H, 'n', 00H, 00H, 00H
	ORG $+2
$SG119940 DB	'F', 00H, 'i', 00H, 'l', 00H, 'e', 00H, ' ', 00H, 'w', 00H
	DB	'a', 00H, 's', 00H, ' ', 00H, 'o', 00H, 'p', 00H, 'e', 00H, 'n'
	DB	00H, 'e', 00H, 'd', 00H, ' ', 00H, 'f', 00H, 'o', 00H, 'r', 00H
	DB	' ', 00H, 'r', 00H, 'e', 00H, 'a', 00H, 'd', 00H, 00H, 00H
	ORG $+6
$SG119941 DB	'D', 00H, 'e', 00H, 'p', 00H, 'u', 00H, 'r', 00H, 'a', 00H
	DB	'c', 00H, 'i', 00H, 'o', 00H, 'n', 00H, 00H, 00H
	ORG $+2
$SG119942 DB	'F', 00H, 'i', 00H, 'l', 00H, 'e', 00H, ' ', 00H, 'w', 00H
	DB	'a', 00H, 's', 00H, ' ', 00H, 'r', 00H, 'e', 00H, 'a', 00H, 'd'
	DB	00H, 00H, 00H
	ORG $+4
$SG119945 DB	'C', 00H, 'o', 00H, 'n', 00H, 't', 00H, 'e', 00H, 'n', 00H
	DB	'i', 00H, 'd', 00H, 'o', 00H, ' ', 00H, 'd', 00H, 'e', 00H, 'l'
	DB	00H, ' ', 00H, 'A', 00H, 'r', 00H, 'c', 00H, 'h', 00H, 'i', 00H
	DB	'v', 00H, 'o', 00H, 00H, 00H
	ORG $+4
$SG119946 DB	'E', 00H, 'r', 00H, 'r', 00H, 'o', 00H, 'r', 00H, 00H, 00H
	ORG $+4
$SG119947 DB	'I', 00H, ' ', 00H, 'c', 00H, 'a', 00H, 'n', 00H, 't', 00H
	DB	' ', 00H, 'r', 00H, 'e', 00H, 'a', 00H, 'd', 00H, ' ', 00H, 'a'
	DB	00H, ' ', 00H, 'm', 00H, 'a', 00H, 'i', 00H, 'n', 00H, ' ', 00H
	DB	'f', 00H, 'i', 00H, 'l', 00H, 'e', 00H, '!', 00H, 00H, 00H
	ORG $+6
$SG119948 DB	'D', 00H, 'e', 00H, 'p', 00H, 'u', 00H, 'r', 00H, 'a', 00H
	DB	'c', 00H, 'i', 00H, 'o', 00H, 'n', 00H, 00H, 00H
	ORG $+2
$SG119949 DB	'F', 00H, 'i', 00H, 'l', 00H, 'e', 00H, ' ', 00H, 'w', 00H
	DB	'a', 00H, 's', 00H, ' ', 00H, 'c', 00H, 'l', 00H, 'o', 00H, 's'
	DB	00H, 'e', 00H, 'd', 00H, 00H, 00H
$SG119951 DB	'E', 00H, 'r', 00H, 'r', 00H, 'o', 00H, 'r', 00H, 00H, 00H
	ORG $+4
$SG119952 DB	'E', 00H, 'r', 00H, 'r', 00H, 'o', 00H, 'r', 00H, ' ', 00H
	DB	'a', 00H, 'l', 00H, ' ', 00H, 'a', 00H, 'b', 00H, 'r', 00H, 'i'
	DB	00H, 'r', 00H, ' ', 00H, 'e', 00H, 'l', 00H, ' ', 00H, 'a', 00H
	DB	'r', 00H, 'c', 00H, 'h', 00H, 'i', 00H, 'v', 00H, 'o', 00H, 00H
	DB	00H
	ORG $+4
$SG119953 DB	'D', 00H, 'e', 00H, 'p', 00H, 'u', 00H, 'r', 00H, 'a', 00H
	DB	'c', 00H, 'i', 00H, 'o', 00H, 'n', 00H, 00H, 00H
	ORG $+2
$SG119954 DB	'_', 00H, 'C', 00H, 'r', 00H, 'e', 00H, 'a', 00H, 't', 00H
	DB	'e', 00H, 'F', 00H, 'i', 00H, 'l', 00H, 'e', 00H, 'A', 00H, 00H
	DB	00H
	ORG $+6
$SG119955 DB	'D', 00H, 'e', 00H, 'p', 00H, 'u', 00H, 'r', 00H, 'a', 00H
	DB	'c', 00H, 'i', 00H, 'o', 00H, 'n', 00H, 00H, 00H
	ORG $+2
$SG119956 DB	'G', 00H, 'e', 00H, 't', 00H, 'F', 00H, 'i', 00H, 'l', 00H
	DB	'e', 00H, 'S', 00H, 'i', 00H, 'z', 00H, 'e', 00H, '(', 00H, 'h'
	DB	00H, 'F', 00H, 'i', 00H, 'l', 00H, 'e', 00H, ',', 00H, ' ', 00H
	DB	'N', 00H, 'U', 00H, 'L', 00H, 'L', 00H, ')', 00H, 00H, 00H
	ORG $+6
$SG119958 DB	'E', 00H, 'r', 00H, 'r', 00H, 'o', 00H, 'r', 00H, 00H, 00H
	ORG $+4
$SG119959 DB	'E', 00H, 'r', 00H, 'r', 00H, 'o', 00H, 'r', 00H, ' ', 00H
	DB	'c', 00H, 'r', 00H, 'e', 00H, 'a', 00H, 't', 00H, 'i', 00H, 'n'
	DB	00H, 'g', 00H, ' ', 00H, 'f', 00H, 'i', 00H, 'l', 00H, 'e', 00H
	DB	' ', 00H, 'm', 00H, 'a', 00H, 'p', 00H, 'p', 00H, 'i', 00H, 'n'
	DB	00H, 'g', 00H, '.', 00H, 00H, 00H
	ORG $+6
$SG119960 DB	'D', 00H, 'e', 00H, 'p', 00H, 'u', 00H, 'r', 00H, 'a', 00H
	DB	'c', 00H, 'i', 00H, 'o', 00H, 'n', 00H, 00H, 00H
	ORG $+2
$SG119961 DB	'G', 00H, 'e', 00H, 't', 00H, 'F', 00H, 'i', 00H, 'l', 00H
	DB	'e', 00H, 'S', 00H, 'i', 00H, 'z', 00H, 'e', 00H, '(', 00H, 'h'
	DB	00H, 'F', 00H, 'i', 00H, 'l', 00H, 'e', 00H, ',', 00H, ' ', 00H
	DB	'N', 00H, 'U', 00H, 'L', 00H, 'L', 00H, ')', 00H, 00H, 00H
	ORG $+6
$SG119963 DB	'E', 00H, 'r', 00H, 'r', 00H, 'o', 00H, 'r', 00H, 00H, 00H
	ORG $+4
$SG119964 DB	'E', 00H, 'r', 00H, 'r', 00H, 'o', 00H, 'r', 00H, ' ', 00H
	DB	'm', 00H, 'a', 00H, 'p', 00H, 'p', 00H, 'i', 00H, 'n', 00H, 'g'
	DB	00H, ' ', 00H, 'v', 00H, 'i', 00H, 'e', 00H, 'w', 00H, ' ', 00H
	DB	'o', 00H, 'f', 00H, ' ', 00H, 'f', 00H, 'i', 00H, 'l', 00H, 'e'
	DB	00H, '.', 00H, '.', 00H, 00H, 00H
	ORG $+6
$SG119965 DB	'D', 00H, 'e', 00H, 'p', 00H, 'u', 00H, 'r', 00H, 'a', 00H
	DB	'c', 00H, 'i', 00H, 'o', 00H, 'n', 00H, 00H, 00H
	ORG $+2
$SG119966 DB	'M', 00H, 'a', 00H, 'p', 00H, 'V', 00H, 'i', 00H, 'e', 00H
	DB	'w', 00H, 'O', 00H, 'f', 00H, 'F', 00H, 'i', 00H, 'l', 00H, 'e'
	DB	00H, '(', 00H, 'h', 00H, 'M', 00H, 'a', 00H, 'p', 00H, 'p', 00H
	DB	'i', 00H, 'n', 00H, 'g', 00H, ',', 00H, ' ', 00H, 'F', 00H, 'I'
	DB	00H, 'L', 00H, 'E', 00H, '_', 00H, 'M', 00H, 'A', 00H, 'P', 00H
	DB	'_', 00H, 'R', 00H, 'E', 00H, 'A', 00H, 'D', 00H, ',', 00H, ' '
	DB	00H, '0', 00H, ',', 00H, ' ', 00H, '0', 00H, ',', 00H, ' ', 00H
	DB	'0', 00H, ')', 00H, 00H, 00H
$SG119969 DB	'A', 00H, 'v', 00H, 'i', 00H, 's', 00H, 'o', 00H, 00H, 00H
	ORG $+4
$SG119970 DB	'S', 00H, 'e', 00H, 'c', 00H, 'c', 00H, 'i', 00H, 0f3H, 00H
	DB	'n', 00H, ' ', 00H, '.', 00H, 't', 00H, 'e', 00H, 'x', 00H, 't'
	DB	00H, ' ', 00H, 'e', 00H, 'n', 00H, 'c', 00H, 'o', 00H, 'n', 00H
	DB	't', 00H, 'r', 00H, 'a', 00H, 'd', 00H, 'a', 00H, '.', 00H, ' '
	DB	00H, ' ', 00H, 00H, 00H
$SG119971 DB	'E', 00H, 'r', 00H, 'r', 00H, 'o', 00H, 'r', 00H, 00H, 00H
	ORG $+12
$SG119972 DB	'N', 00H, 'o', 00H, ' ', 00H, 's', 00H, 'e', 00H, ' ', 00H
	DB	'e', 00H, 'n', 00H, 'c', 00H, 'o', 00H, 'n', 00H, 't', 00H, 'r'
	DB	00H, 0f3H, 00H, ' ', 00H, 'l', 00H, 'a', 00H, ' ', 00H, 's', 00H
	DB	'e', 00H, 'c', 00H, 'c', 00H, 'i', 00H, 0f3H, 00H, 'n', 00H, ' '
	DB	00H, '.', 00H, 't', 00H, 'e', 00H, 'x', 00H, 't', 00H, '.', 00H
	DB	00H, 00H
	ORG $+6
$SG119973 DB	'D', 00H, 'e', 00H, 'p', 00H, 'u', 00H, 'r', 00H, 'a', 00H
	DB	'c', 00H, 'i', 00H, 'o', 00H, 'n', 00H, 00H, 00H
	ORG $+2
$SG119974 DB	'G', 00H, 'e', 00H, 't', 00H, 'T', 00H, 'e', 00H, 'x', 00H
	DB	't', 00H, 'S', 00H, 'e', 00H, 'c', 00H, 't', 00H, 'i', 00H, 'o'
	DB	00H, 'n', 00H, '(', 00H, 'e', 00H, 'x', 00H, 'e', 00H, 'B', 00H
	DB	'a', 00H, 's', 00H, 'e', 00H, ',', 00H, ' ', 00H, '&', 00H, 's'
	DB	00H, 'e', 00H, 'c', 00H, 't', 00H, 'i', 00H, 'o', 00H, 'n', 00H
	DB	'S', 00H, 'i', 00H, 'z', 00H, 'e', 00H, ',', 00H, ' ', 00H, 's'
	DB	00H, 't', 00H, 'r', 00H, 'n', 00H, 'c', 00H, 'm', 00H, 'p', 00H
	DB	'_', 00H, 'f', 00H, 'u', 00H, 'n', 00H, 'c', 00H, ')', 00H, 00H
	DB	00H
$SG119975 DB	'D', 00H, 'e', 00H, 'p', 00H, 'u', 00H, 'r', 00H, 'a', 00H
	DB	'c', 00H, 'i', 00H, 'o', 00H, 'n', 00H, 00H, 00H
	ORG $+2
$SG119976 DB	'U', 00H, 'n', 00H, 'm', 00H, 'a', 00H, 'p', 00H, 'V', 00H
	DB	'i', 00H, 'e', 00H, 'w', 00H, 'O', 00H, 'f', 00H, 'F', 00H, 'i'
	DB	00H, 'l', 00H, 'e', 00H, '(', 00H, 'e', 00H, 'x', 00H, 'e', 00H
	DB	'B', 00H, 'a', 00H, 's', 00H, 'e', 00H, ')', 00H, 00H, 00H
	ORG $+6
$SG119977 DB	'D', 00H, 'e', 00H, 'p', 00H, 'u', 00H, 'r', 00H, 'a', 00H
	DB	'c', 00H, 'i', 00H, 'o', 00H, 'n', 00H, 00H, 00H
	ORG $+2
$SG119978 DB	'_', 00H, 'C', 00H, 'l', 00H, 'o', 00H, 's', 00H, 'e', 00H
	DB	'H', 00H, 'a', 00H, 'n', 00H, 'd', 00H, 'l', 00H, 'e', 00H, '('
	DB	00H, 'h', 00H, 'M', 00H, 'a', 00H, 'p', 00H, 'p', 00H, 'i', 00H
	DB	'n', 00H, 'g', 00H, ')', 00H, 00H, 00H
	ORG $+2
$SG119979 DB	'D', 00H, 'e', 00H, 'p', 00H, 'u', 00H, 'r', 00H, 'a', 00H
	DB	'c', 00H, 'i', 00H, 'o', 00H, 'n', 00H, 00H, 00H
	ORG $+2
$SG119980 DB	'_', 00H, 'C', 00H, 'l', 00H, 'o', 00H, 's', 00H, 'e', 00H
	DB	'H', 00H, 'a', 00H, 'n', 00H, 'd', 00H, 'l', 00H, 'e', 00H, '('
	DB	00H, 'h', 00H, 'F', 00H, 'i', 00H, 'l', 00H, 'e', 00H, ')', 00H
	DB	00H, 00H
$SG119982 DB	'E', 00H, 'r', 00H, 'r', 00H, 'o', 00H, 'r', 00H, 00H, 00H
	ORG $+4
$SG119983 DB	'E', 00H, 'r', 00H, 'r', 00H, 'o', 00H, 'r', 00H, ' ', 00H
	DB	'a', 00H, 'l', 00H, ' ', 00H, 'a', 00H, 'b', 00H, 'r', 00H, 'i'
	DB	00H, 'r', 00H, ' ', 00H, 'e', 00H, 'l', 00H, ' ', 00H, 'a', 00H
	DB	'r', 00H, 'c', 00H, 'h', 00H, 'i', 00H, 'v', 00H, 'o', 00H, ' '
	DB	00H, 'v', 00H, 'i', 00H, 'c', 00H, 00H, 00H
	ORG $+4
$SG119984 DB	'D', 00H, 'e', 00H, 'p', 00H, 'u', 00H, 'r', 00H, 'a', 00H
	DB	'c', 00H, 'i', 00H, 'o', 00H, 'n', 00H, 00H, 00H
	ORG $+2
$SG119985 DB	'_', 00H, 'C', 00H, 'r', 00H, 'e', 00H, 'a', 00H, 't', 00H
	DB	'e', 00H, 'F', 00H, 'i', 00H, 'l', 00H, 'e', 00H, 'A', 00H, '('
	DB	00H, '2', 00H, 'x', 00H, ')', 00H, 00H, 00H
	ORG $+6
$SG119986 DB	'D', 00H, 'e', 00H, 'p', 00H, 'u', 00H, 'r', 00H, 'a', 00H
	DB	'c', 00H, 'i', 00H, 'o', 00H, 'n', 00H, 00H, 00H
	ORG $+2
$SG119987 DB	'A', 00H, 'd', 00H, 'd', 00H, ' ', 00H, 's', 00H, 'e', 00H
	DB	'c', 00H, 't', 00H, 'i', 00H, 'o', 00H, 'n', 00H, 00H, 00H
$SG119990 DB	0c9H, 00H, 'x', 00H, 'i', 00H, 't', 00H, 'o', 00H, 00H, 00H
	ORG $+4
$SG119991 DB	'C', 00H, 'o', 00H, 'n', 00H, 't', 00H, 'e', 00H, 'n', 00H
	DB	'i', 00H, 'd', 00H, 'o', 00H, ' ', 00H, 'd', 00H, 'e', 00H, ' '
	DB	00H, '.', 00H, 't', 00H, 'e', 00H, 'x', 00H, 't', 00H, ' ', 00H
	DB	'c', 00H, 'o', 00H, 'p', 00H, 'i', 00H, 'a', 00H, 'd', 00H, 'o'
	DB	00H, ' ', 00H, 'a', 00H, ' ', 00H, '.', 00H, 's', 00H, 'h', 00H
	DB	'e', 00H, 'l', 00H, 'l', 00H, 00H, 00H
$SG119992 DB	'E', 00H, 'r', 00H, 'r', 00H, 'o', 00H, 'r', 00H, 00H, 00H
	ORG $+12
$SG119993 DB	'E', 00H, 'r', 00H, 'r', 00H, 'o', 00H, 'r', 00H, ' ', 00H
	DB	'a', 00H, 'l', 00H, ' ', 00H, 'c', 00H, 'o', 00H, 'p', 00H, 'i'
	DB	00H, 'a', 00H, 'r', 00H, ' ', 00H, 'l', 00H, 'a', 00H, ' ', 00H
	DB	's', 00H, 'e', 00H, 'c', 00H, 'c', 00H, 'i', 00H, 0f3H, 00H, 'n'
	DB	00H, ' ', 00H, '.', 00H, 't', 00H, 'e', 00H, 'x', 00H, 't', 00H
	DB	00H, 00H
CONST	ENDS
_DATA	SEGMENT
?kernel32_dll_name@@3PA_WA DW 06bH			; kernel32_dll_name
	DW	065H
	DW	072H
	DW	06eH
	DW	065H
	DW	06cH
	DW	033H
	DW	032H
	DW	02eH
	DW	064H
	DW	06cH
	DW	06cH
	DW	00H
	ORG $+6
?load_lib_name@@3PADA DB 04cH				; load_lib_name
	DB	06fH
	DB	061H
	DB	064H
	DB	04cH
	DB	069H
	DB	062H
	DB	072H
	DB	061H
	DB	072H
	DB	079H
	DB	041H
	DB	00H
	ORG $+3
?get_proc_name@@3PADA DB 047H				; get_proc_name
	DB	065H
	DB	074H
	DB	050H
	DB	072H
	DB	06fH
	DB	063H
	DB	041H
	DB	064H
	DB	064H
	DB	072H
	DB	065H
	DB	073H
	DB	073H
	DB	00H
	ORG $+1
?kr32_dll_name@@3PADA DB 06bH				; kr32_dll_name
	DB	065H
	DB	072H
	DB	06eH
	DB	065H
	DB	06cH
	DB	033H
	DB	032H
	DB	02eH
	DB	064H
	DB	06cH
	DB	06cH
	DB	00H
	ORG $+3
?user32_dll_name@@3PADA DB 075H				; user32_dll_name
	DB	073H
	DB	065H
	DB	072H
	DB	033H
	DB	032H
	DB	02eH
	DB	064H
	DB	06cH
	DB	06cH
	DB	00H
	ORG $+5
?ucrtbase_dll_name@@3PADA DB 075H			; ucrtbase_dll_name
	DB	063H
	DB	072H
	DB	074H
	DB	062H
	DB	061H
	DB	073H
	DB	065H
	DB	02eH
	DB	064H
	DB	06cH
	DB	06cH
	ORG $+4
?message_box_name@@3PADA DB 04dH			; message_box_name
	DB	065H
	DB	073H
	DB	073H
	DB	061H
	DB	067H
	DB	065H
	DB	042H
	DB	06fH
	DB	078H
	DB	057H
	DB	00H
	ORG $+4
?cf_name@@3PADA DB 043H					; cf_name
	DB	072H
	DB	065H
	DB	061H
	DB	074H
	DB	065H
	DB	046H
	DB	069H
	DB	06cH
	DB	065H
	DB	041H
	DB	00H
	ORG $+4
?rf_name@@3PADA DB 052H					; rf_name
	DB	065H
	DB	061H
	DB	064H
	DB	046H
	DB	069H
	DB	06cH
	DB	065H
	DB	00H
	ORG $+7
?close_handle_name@@3PADA DB 043H			; close_handle_name
	DB	06cH
	DB	06fH
	DB	073H
	DB	065H
	DB	048H
	DB	061H
	DB	06eH
	DB	064H
	DB	06cH
	DB	065H
	DB	00H
	ORG $+4
?mb_to_wc_name@@3PADA DB 04dH				; mb_to_wc_name
	DB	075H
	DB	06cH
	DB	074H
	DB	069H
	DB	042H
	DB	079H
	DB	074H
	DB	065H
	DB	054H
	DB	06fH
	DB	057H
	DB	069H
	DB	064H
	DB	065H
	DB	043H
	DB	068H
	DB	061H
	DB	072H
	DB	00H
	ORG $+4
?strncmp_name@@3PADA DB 073H				; strncmp_name
	DB	074H
	DB	072H
	DB	06eH
	DB	063H
	DB	06dH
	DB	070H
	DB	00H
?get_file_size_name@@3PADA DB 047H			; get_file_size_name
	DB	065H
	DB	074H
	DB	046H
	DB	069H
	DB	06cH
	DB	065H
	DB	053H
	DB	069H
	DB	07aH
	DB	065H
	DB	00H
	ORG $+4
?map_view_of_file_name@@3PADA DB 04dH			; map_view_of_file_name
	DB	061H
	DB	070H
	DB	056H
	DB	069H
	DB	065H
	DB	077H
	DB	04fH
	DB	066H
	DB	046H
	DB	069H
	DB	06cH
	DB	065H
	DB	00H
	ORG $+2
?unmap_view_of_file_name@@3PADA DB 055H			; unmap_view_of_file_name
	DB	06eH
	DB	06dH
	DB	061H
	DB	070H
	DB	056H
	DB	069H
	DB	065H
	DB	077H
	DB	04fH
	DB	066H
	DB	046H
	DB	069H
	DB	06cH
	DB	065H
	DB	00H
?create_file_mapping_name@@3PADA DB 043H		; create_file_mapping_name
	DB	072H
	DB	065H
	DB	061H
	DB	074H
	DB	065H
	DB	046H
	DB	069H
	DB	06cH
	DB	065H
	DB	04dH
	DB	061H
	DB	070H
	DB	070H
	DB	069H
	DB	06eH
	DB	067H
	DB	041H
	DB	00H
	ORG $+5
?msg_content@@3PA_WA DW 048H				; msg_content
	DW	065H
	DW	06cH
	DW	06cH
	DW	06fH
	DW	020H
	DW	057H
	DW	06fH
	DW	072H
	DW	06cH
	DW	064H
	DW	021H
	DW	00H
	ORG $+6
?msg_title@@3PA_WA DW 044H				; msg_title
	DW	065H
	DW	06dH
	DW	06fH
	DW	021H
	DW	00H
	ORG $+4
?fileName@@3PADA DB 063H				; fileName
	DB	02dH
	DB	073H
	DB	068H
	DB	065H
	DB	06cH
	DB	06cH
	DB	063H
	DB	06fH
	DB	064H
	DB	065H
	DB	02eH
	DB	065H
	DB	078H
	DB	065H
	DB	00H
?fileName_vic@@3PADA DB 079H				; fileName_vic
	DB	075H
	DB	073H
	DB	06bH
	DB	06fH
	DB	076H
	DB	069H
	DB	063H
	DB	02eH
	DB	065H
	DB	078H
	DB	065H
	DB	00H
	ORG $+3
?func_name@@3PADA DB 073H				; func_name
	DB	074H
	DB	072H
	DB	06eH
	DB	063H
	DB	06dH
	DB	070H
	DB	00H
?malloc_name@@3PADA DB 06dH				; malloc_name
	DB	061H
	DB	06cH
	DB	06cH
	DB	06fH
	DB	063H
	DB	00H
	ORG $+1
?memcpy_name@@3PADA DB 06dH				; memcpy_name
	DB	065H
	DB	06dH
	DB	063H
	DB	070H
	DB	079H
	DB	00H
_DATA	ENDS
_TEXT	SEGMENT
?load_lib_str@@3PADA DB 'LoadLibraryA', 00H		; load_lib_str
	ORG $+3
?kernel32_str@@3PA_WA DB 'k', 00H, 'e', 00H, 'r', 00H, 'n', 00H, 'e', 00H
	DB	'l', 00H, '3', 00H, '2', 00H, '.', 00H, 'd', 00H, 'l', 00H, 'l'
	DB	00H, 00H, 00H				; kernel32_str
_TEXT	ENDS
PUBLIC	?get_module_by_name@@YAPEAXPEA_W@Z		; get_module_by_name
PUBLIC	?get_func_by_name@@YAPEAXPEAXPEAD@Z		; get_func_by_name
PUBLIC	??2@YAPEAX_KPEAX@Z				; operator new
PUBLIC	__local_stdio_printf_options
PUBLIC	_vsprintf_s_l
PUBLIC	sprintf_s
PUBLIC	wmemset
PUBLIC	?fpclassify@@YAHN@Z				; fpclassify
PUBLIC	?fpclassify@@YAHO@Z				; fpclassify
PUBLIC	fabsl
PUBLIC	frexpl
PUBLIC	?copy@?$_Char_traits@_WG@std@@SAPEA_WQEA_WQEB_W_K@Z ; std::_Char_traits<wchar_t,unsigned short>::copy
PUBLIC	?move@?$_Char_traits@_WG@std@@SAPEA_WQEA_WQEB_W_K@Z ; std::_Char_traits<wchar_t,unsigned short>::move
PUBLIC	?length@?$_WChar_traits@_W@std@@SA_KPEB_W@Z	; std::_WChar_traits<wchar_t>::length
PUBLIC	?assign@?$_WChar_traits@_W@std@@SAPEA_WQEA_W_K_W@Z ; std::_WChar_traits<wchar_t>::assign
PUBLIC	?assign@?$_WChar_traits@_W@std@@SAXAEA_WAEB_W@Z	; std::_WChar_traits<wchar_t>::assign
PUBLIC	?eq@?$_WChar_traits@_W@std@@SA_N_W0@Z		; std::_WChar_traits<wchar_t>::eq
PUBLIC	?to_char_type@?$_WChar_traits@_W@std@@SA_WG@Z	; std::_WChar_traits<wchar_t>::to_char_type
PUBLIC	?to_int_type@?$_WChar_traits@_W@std@@SAG_W@Z	; std::_WChar_traits<wchar_t>::to_int_type
PUBLIC	?eq_int_type@?$_WChar_traits@_W@std@@SA_NGG@Z	; std::_WChar_traits<wchar_t>::eq_int_type
PUBLIC	?not_eof@?$_WChar_traits@_W@std@@SAGG@Z		; std::_WChar_traits<wchar_t>::not_eof
PUBLIC	?eof@?$_WChar_traits@_W@std@@SAGXZ		; std::_WChar_traits<wchar_t>::eof
PUBLIC	?copy@?$_Char_traits@DH@std@@SAPEADQEADQEBD_K@Z	; std::_Char_traits<char,int>::copy
PUBLIC	?move@?$_Char_traits@DH@std@@SAPEADQEADQEBD_K@Z	; std::_Char_traits<char,int>::move
PUBLIC	?length@?$_Narrow_char_traits@DH@std@@SA_KQEBD@Z ; std::_Narrow_char_traits<char,int>::length
PUBLIC	?assign@?$_Narrow_char_traits@DH@std@@SAPEADQEAD_KD@Z ; std::_Narrow_char_traits<char,int>::assign
PUBLIC	?assign@?$_Narrow_char_traits@DH@std@@SAXAEADAEBD@Z ; std::_Narrow_char_traits<char,int>::assign
PUBLIC	??0exception@std@@QEAA@QEBD@Z			; std::exception::exception
PUBLIC	??0exception@std@@QEAA@QEBDH@Z			; std::exception::exception
PUBLIC	??0exception@std@@QEAA@AEBV01@@Z		; std::exception::exception
PUBLIC	??1exception@std@@UEAA@XZ			; std::exception::~exception
PUBLIC	?what@exception@std@@UEBAPEBDXZ			; std::exception::what
PUBLIC	??_Gexception@std@@UEAAPEAXI@Z			; std::exception::`scalar deleting destructor'
PUBLIC	??0bad_alloc@std@@AEAA@QEBD@Z			; std::bad_alloc::bad_alloc
PUBLIC	??1bad_alloc@std@@UEAA@XZ			; std::bad_alloc::~bad_alloc
PUBLIC	??0bad_alloc@std@@QEAA@AEBV01@@Z		; std::bad_alloc::bad_alloc
PUBLIC	??_Gbad_alloc@std@@UEAAPEAXI@Z			; std::bad_alloc::`scalar deleting destructor'
PUBLIC	??0bad_array_new_length@std@@QEAA@XZ		; std::bad_array_new_length::bad_array_new_length
PUBLIC	??1bad_array_new_length@std@@UEAA@XZ		; std::bad_array_new_length::~bad_array_new_length
PUBLIC	??0bad_array_new_length@std@@QEAA@AEBV01@@Z	; std::bad_array_new_length::bad_array_new_length
PUBLIC	??_Gbad_array_new_length@std@@UEAAPEAXI@Z	; std::bad_array_new_length::`scalar deleting destructor'
PUBLIC	?_Throw_bad_array_new_length@std@@YAXXZ		; std::_Throw_bad_array_new_length
PUBLIC	?_Allocate@_Default_allocate_traits@std@@SAPEAX_K@Z ; std::_Default_allocate_traits::_Allocate
PUBLIC	?_Adjust_manually_vector_aligned@std@@YAXAEAPEAXAEA_K@Z ; std::_Adjust_manually_vector_aligned
PUBLIC	?_Orphan_all@_Container_base0@std@@QEAAXXZ	; std::_Container_base0::_Orphan_all
PUBLIC	?_Swap_proxy_and_iterators@_Container_base0@std@@QEAAXAEAU12@@Z ; std::_Container_base0::_Swap_proxy_and_iterators
PUBLIC	?_Alloc_proxy@_Container_base0@std@@QEAAXAEBU_Fake_allocator@2@@Z ; std::_Container_base0::_Alloc_proxy
PUBLIC	??0_Fake_proxy_ptr_impl@std@@QEAA@AEBU_Fake_allocator@1@AEBU_Container_base0@1@@Z ; std::_Fake_proxy_ptr_impl::_Fake_proxy_ptr_impl
PUBLIC	?_Release@_Fake_proxy_ptr_impl@std@@QEAAXXZ	; std::_Fake_proxy_ptr_impl::_Release
PUBLIC	?_Xlen_string@std@@YAXXZ			; std::_Xlen_string
PUBLIC	??0?$allocator@D@std@@QEAA@XZ			; std::allocator<char>::allocator<char>
PUBLIC	?deallocate@?$allocator@D@std@@QEAAXQEAD_K@Z	; std::allocator<char>::deallocate
PUBLIC	?allocate@?$allocator@D@std@@QEAAPEAD_K@Z	; std::allocator<char>::allocate
PUBLIC	?max_size@?$_Default_allocator_traits@V?$allocator@D@std@@@std@@SA_KAEBV?$allocator@D@2@@Z ; std::_Default_allocator_traits<std::allocator<char> >::max_size
PUBLIC	?select_on_container_copy_construction@?$_Default_allocator_traits@V?$allocator@D@std@@@std@@SA?AV?$allocator@D@2@AEBV32@@Z ; std::_Default_allocator_traits<std::allocator<char> >::select_on_container_copy_construction
PUBLIC	??0?$_String_val@U?$_Simple_types@D@std@@@std@@QEAA@XZ ; std::_String_val<std::_Simple_types<char> >::_String_val<std::_Simple_types<char> >
PUBLIC	?_Myptr@?$_String_val@U?$_Simple_types@D@std@@@std@@QEAAPEADXZ ; std::_String_val<std::_Simple_types<char> >::_Myptr
PUBLIC	?_Myptr@?$_String_val@U?$_Simple_types@D@std@@@std@@QEBAPEBDXZ ; std::_String_val<std::_Simple_types<char> >::_Myptr
PUBLIC	?_Large_mode_engaged@?$_String_val@U?$_Simple_types@D@std@@@std@@QEBA_NXZ ; std::_String_val<std::_Simple_types<char> >::_Large_mode_engaged
PUBLIC	?_Activate_SSO_buffer@?$_String_val@U?$_Simple_types@D@std@@@std@@QEAAXXZ ; std::_String_val<std::_Simple_types<char> >::_Activate_SSO_buffer
PUBLIC	??0_Bxty@?$_String_val@U?$_Simple_types@D@std@@@std@@QEAA@XZ ; std::_String_val<std::_Simple_types<char> >::_Bxty::_Bxty
PUBLIC	??1_Bxty@?$_String_val@U?$_Simple_types@D@std@@@std@@QEAA@XZ ; std::_String_val<std::_Simple_types<char> >::_Bxty::~_Bxty
PUBLIC	?_Switch_to_buf@_Bxty@?$_String_val@U?$_Simple_types@D@std@@@std@@QEAAXXZ ; std::_String_val<std::_Simple_types<char> >::_Bxty::_Switch_to_buf
PUBLIC	??1?$_String_val@U?$_Simple_types@D@std@@@std@@QEAA@XZ ; std::_String_val<std::_Simple_types<char> >::~_String_val<std::_Simple_types<char> >
PUBLIC	??0?$basic_string@DU?$char_traits@D@std@@V?$allocator@D@2@@std@@QEAA@XZ ; std::basic_string<char,std::char_traits<char>,std::allocator<char> >::basic_string<char,std::char_traits<char>,std::allocator<char> >
PUBLIC	??0?$basic_string@DU?$char_traits@D@std@@V?$allocator@D@2@@std@@QEAA@AEBV01@@Z ; std::basic_string<char,std::char_traits<char>,std::allocator<char> >::basic_string<char,std::char_traits<char>,std::allocator<char> >
PUBLIC	??0?$basic_string@DU?$char_traits@D@std@@V?$allocator@D@2@@std@@QEAA@QEBD_K@Z ; std::basic_string<char,std::char_traits<char>,std::allocator<char> >::basic_string<char,std::char_traits<char>,std::allocator<char> >
PUBLIC	??0?$basic_string@DU?$char_traits@D@std@@V?$allocator@D@2@@std@@QEAA@QEBD@Z ; std::basic_string<char,std::char_traits<char>,std::allocator<char> >::basic_string<char,std::char_traits<char>,std::allocator<char> >
PUBLIC	?_Deallocate_for_capacity@?$basic_string@DU?$char_traits@D@std@@V?$allocator@D@2@@std@@CAXAEAV?$allocator@D@2@QEAD_K@Z ; std::basic_string<char,std::char_traits<char>,std::allocator<char> >::_Deallocate_for_capacity
PUBLIC	?_Construct_empty@?$basic_string@DU?$char_traits@D@std@@V?$allocator@D@2@@std@@AEAAXXZ ; std::basic_string<char,std::char_traits<char>,std::allocator<char> >::_Construct_empty
PUBLIC	??0?$basic_string@DU?$char_traits@D@std@@V?$allocator@D@2@@std@@QEAA@$$QEAV01@@Z ; std::basic_string<char,std::char_traits<char>,std::allocator<char> >::basic_string<char,std::char_traits<char>,std::allocator<char> >
PUBLIC	?_Take_contents@?$basic_string@DU?$char_traits@D@std@@V?$allocator@D@2@@std@@AEAAXAEAV12@@Z ; std::basic_string<char,std::char_traits<char>,std::allocator<char> >::_Take_contents
PUBLIC	??1?$basic_string@DU?$char_traits@D@std@@V?$allocator@D@2@@std@@QEAA@XZ ; std::basic_string<char,std::char_traits<char>,std::allocator<char> >::~basic_string<char,std::char_traits<char>,std::allocator<char> >
PUBLIC	?append@?$basic_string@DU?$char_traits@D@std@@V?$allocator@D@2@@std@@QEAAAEAV12@AEBV12@@Z ; std::basic_string<char,std::char_traits<char>,std::allocator<char> >::append
PUBLIC	?append@?$basic_string@DU?$char_traits@D@std@@V?$allocator@D@2@@std@@QEAAAEAV12@QEBD_K@Z ; std::basic_string<char,std::char_traits<char>,std::allocator<char> >::append
PUBLIC	?append@?$basic_string@DU?$char_traits@D@std@@V?$allocator@D@2@@std@@QEAAAEAV12@QEBD@Z ; std::basic_string<char,std::char_traits<char>,std::allocator<char> >::append
PUBLIC	?append@?$basic_string@DU?$char_traits@D@std@@V?$allocator@D@2@@std@@QEAAAEAV12@_KD@Z ; std::basic_string<char,std::char_traits<char>,std::allocator<char> >::append
PUBLIC	??A?$basic_string@DU?$char_traits@D@std@@V?$allocator@D@2@@std@@QEAAAEAD_K@Z ; std::basic_string<char,std::char_traits<char>,std::allocator<char> >::operator[]
PUBLIC	??A?$basic_string@DU?$char_traits@D@std@@V?$allocator@D@2@@std@@QEBAAEBD_K@Z ; std::basic_string<char,std::char_traits<char>,std::allocator<char> >::operator[]
PUBLIC	?c_str@?$basic_string@DU?$char_traits@D@std@@V?$allocator@D@2@@std@@QEBAPEBDXZ ; std::basic_string<char,std::char_traits<char>,std::allocator<char> >::c_str
PUBLIC	?size@?$basic_string@DU?$char_traits@D@std@@V?$allocator@D@2@@std@@QEBA_KXZ ; std::basic_string<char,std::char_traits<char>,std::allocator<char> >::size
PUBLIC	?max_size@?$basic_string@DU?$char_traits@D@std@@V?$allocator@D@2@@std@@QEBA_KXZ ; std::basic_string<char,std::char_traits<char>,std::allocator<char> >::max_size
PUBLIC	?resize@?$basic_string@DU?$char_traits@D@std@@V?$allocator@D@2@@std@@QEAAX_KD@Z ; std::basic_string<char,std::char_traits<char>,std::allocator<char> >::resize
PUBLIC	?empty@?$basic_string@DU?$char_traits@D@std@@V?$allocator@D@2@@std@@QEBA_NXZ ; std::basic_string<char,std::char_traits<char>,std::allocator<char> >::empty
PUBLIC	?_Calculate_growth@?$basic_string@DU?$char_traits@D@std@@V?$allocator@D@2@@std@@CA_K_K00@Z ; std::basic_string<char,std::char_traits<char>,std::allocator<char> >::_Calculate_growth
PUBLIC	?_Calculate_growth@?$basic_string@DU?$char_traits@D@std@@V?$allocator@D@2@@std@@AEBA_K_K@Z ; std::basic_string<char,std::char_traits<char>,std::allocator<char> >::_Calculate_growth
PUBLIC	?_Eos@?$basic_string@DU?$char_traits@D@std@@V?$allocator@D@2@@std@@AEAAX_K@Z ; std::basic_string<char,std::char_traits<char>,std::allocator<char> >::_Eos
PUBLIC	?_Tidy_deallocate@?$basic_string@DU?$char_traits@D@std@@V?$allocator@D@2@@std@@AEAAXXZ ; std::basic_string<char,std::char_traits<char>,std::allocator<char> >::_Tidy_deallocate
PUBLIC	?_Swap_proxy_and_iterators@?$basic_string@DU?$char_traits@D@std@@V?$allocator@D@2@@std@@AEAAXAEAV12@@Z ; std::basic_string<char,std::char_traits<char>,std::allocator<char> >::_Swap_proxy_and_iterators
PUBLIC	?_Getal@?$basic_string@DU?$char_traits@D@std@@V?$allocator@D@2@@std@@AEAAAEAV?$allocator@D@2@XZ ; std::basic_string<char,std::char_traits<char>,std::allocator<char> >::_Getal
PUBLIC	?_Getal@?$basic_string@DU?$char_traits@D@std@@V?$allocator@D@2@@std@@AEBAAEBV?$allocator@D@2@XZ ; std::basic_string<char,std::char_traits<char>,std::allocator<char> >::_Getal
PUBLIC	?_Get_first@?$_Compressed_pair@V?$allocator@D@std@@V?$_String_val@U?$_Simple_types@D@std@@@2@$00@std@@QEAAAEAV?$allocator@D@2@XZ ; std::_Compressed_pair<std::allocator<char>,std::_String_val<std::_Simple_types<char> >,1>::_Get_first
PUBLIC	?_Get_first@?$_Compressed_pair@V?$allocator@D@std@@V?$_String_val@U?$_Simple_types@D@std@@@2@$00@std@@QEBAAEBV?$allocator@D@2@XZ ; std::_Compressed_pair<std::allocator<char>,std::_String_val<std::_Simple_types<char> >,1>::_Get_first
PUBLIC	??1?$_Compressed_pair@V?$allocator@D@std@@V?$_String_val@U?$_Simple_types@D@std@@@2@$00@std@@QEAA@XZ ; std::_Compressed_pair<std::allocator<char>,std::_String_val<std::_Simple_types<char> >,1>::~_Compressed_pair<std::allocator<char>,std::_String_val<std::_Simple_types<char> >,1>
PUBLIC	??0?$allocator@_W@std@@QEAA@XZ			; std::allocator<wchar_t>::allocator<wchar_t>
PUBLIC	?deallocate@?$allocator@_W@std@@QEAAXQEA_W_K@Z	; std::allocator<wchar_t>::deallocate
PUBLIC	?allocate@?$allocator@_W@std@@QEAAPEA_W_K@Z	; std::allocator<wchar_t>::allocate
PUBLIC	?max_size@?$_Default_allocator_traits@V?$allocator@_W@std@@@std@@SA_KAEBV?$allocator@_W@2@@Z ; std::_Default_allocator_traits<std::allocator<wchar_t> >::max_size
PUBLIC	??0?$_String_val@U?$_Simple_types@_W@std@@@std@@QEAA@XZ ; std::_String_val<std::_Simple_types<wchar_t> >::_String_val<std::_Simple_types<wchar_t> >
PUBLIC	?_Myptr@?$_String_val@U?$_Simple_types@_W@std@@@std@@QEAAPEA_WXZ ; std::_String_val<std::_Simple_types<wchar_t> >::_Myptr
PUBLIC	?_Myptr@?$_String_val@U?$_Simple_types@_W@std@@@std@@QEBAPEB_WXZ ; std::_String_val<std::_Simple_types<wchar_t> >::_Myptr
PUBLIC	?_Large_mode_engaged@?$_String_val@U?$_Simple_types@_W@std@@@std@@QEBA_NXZ ; std::_String_val<std::_Simple_types<wchar_t> >::_Large_mode_engaged
PUBLIC	?_Activate_SSO_buffer@?$_String_val@U?$_Simple_types@_W@std@@@std@@QEAAXXZ ; std::_String_val<std::_Simple_types<wchar_t> >::_Activate_SSO_buffer
PUBLIC	?_Check_offset@?$_String_val@U?$_Simple_types@_W@std@@@std@@QEBAX_K@Z ; std::_String_val<std::_Simple_types<wchar_t> >::_Check_offset
PUBLIC	?_Xran@?$_String_val@U?$_Simple_types@_W@std@@@std@@SAXXZ ; std::_String_val<std::_Simple_types<wchar_t> >::_Xran
PUBLIC	??0_Bxty@?$_String_val@U?$_Simple_types@_W@std@@@std@@QEAA@XZ ; std::_String_val<std::_Simple_types<wchar_t> >::_Bxty::_Bxty
PUBLIC	??1_Bxty@?$_String_val@U?$_Simple_types@_W@std@@@std@@QEAA@XZ ; std::_String_val<std::_Simple_types<wchar_t> >::_Bxty::~_Bxty
PUBLIC	?_Switch_to_buf@_Bxty@?$_String_val@U?$_Simple_types@_W@std@@@std@@QEAAXXZ ; std::_String_val<std::_Simple_types<wchar_t> >::_Bxty::_Switch_to_buf
PUBLIC	??1?$_String_val@U?$_Simple_types@_W@std@@@std@@QEAA@XZ ; std::_String_val<std::_Simple_types<wchar_t> >::~_String_val<std::_Simple_types<wchar_t> >
PUBLIC	??0?$basic_string@_WU?$char_traits@_W@std@@V?$allocator@_W@2@@std@@QEAA@XZ ; std::basic_string<wchar_t,std::char_traits<wchar_t>,std::allocator<wchar_t> >::basic_string<wchar_t,std::char_traits<wchar_t>,std::allocator<wchar_t> >
PUBLIC	??0?$basic_string@_WU?$char_traits@_W@std@@V?$allocator@_W@2@@std@@QEAA@AEBV?$allocator@_W@1@@Z ; std::basic_string<wchar_t,std::char_traits<wchar_t>,std::allocator<wchar_t> >::basic_string<wchar_t,std::char_traits<wchar_t>,std::allocator<wchar_t> >
PUBLIC	??0?$basic_string@_WU?$char_traits@_W@std@@V?$allocator@_W@2@@std@@QEAA@QEB_W@Z ; std::basic_string<wchar_t,std::char_traits<wchar_t>,std::allocator<wchar_t> >::basic_string<wchar_t,std::char_traits<wchar_t>,std::allocator<wchar_t> >
PUBLIC	??0?$basic_string@_WU?$char_traits@_W@std@@V?$allocator@_W@2@@std@@QEAA@_K_W@Z ; std::basic_string<wchar_t,std::char_traits<wchar_t>,std::allocator<wchar_t> >::basic_string<wchar_t,std::char_traits<wchar_t>,std::allocator<wchar_t> >
PUBLIC	?_Deallocate_for_capacity@?$basic_string@_WU?$char_traits@_W@std@@V?$allocator@_W@2@@std@@CAXAEAV?$allocator@_W@2@QEA_W_K@Z ; std::basic_string<wchar_t,std::char_traits<wchar_t>,std::allocator<wchar_t> >::_Deallocate_for_capacity
PUBLIC	?_Construct_empty@?$basic_string@_WU?$char_traits@_W@std@@V?$allocator@_W@2@@std@@AEAAXXZ ; std::basic_string<wchar_t,std::char_traits<wchar_t>,std::allocator<wchar_t> >::_Construct_empty
PUBLIC	??0?$basic_string@_WU?$char_traits@_W@std@@V?$allocator@_W@2@@std@@QEAA@$$QEAV01@@Z ; std::basic_string<wchar_t,std::char_traits<wchar_t>,std::allocator<wchar_t> >::basic_string<wchar_t,std::char_traits<wchar_t>,std::allocator<wchar_t> >
PUBLIC	??4?$basic_string@_WU?$char_traits@_W@std@@V?$allocator@_W@2@@std@@QEAAAEAV01@$$QEAV01@@Z ; std::basic_string<wchar_t,std::char_traits<wchar_t>,std::allocator<wchar_t> >::operator=
PUBLIC	?assign@?$basic_string@_WU?$char_traits@_W@std@@V?$allocator@_W@2@@std@@QEAAAEAV12@$$QEAV12@@Z ; std::basic_string<wchar_t,std::char_traits<wchar_t>,std::allocator<wchar_t> >::assign
PUBLIC	?_Take_contents@?$basic_string@_WU?$char_traits@_W@std@@V?$allocator@_W@2@@std@@AEAAXAEAV12@@Z ; std::basic_string<wchar_t,std::char_traits<wchar_t>,std::allocator<wchar_t> >::_Take_contents
PUBLIC	??1?$basic_string@_WU?$char_traits@_W@std@@V?$allocator@_W@2@@std@@QEAA@XZ ; std::basic_string<wchar_t,std::char_traits<wchar_t>,std::allocator<wchar_t> >::~basic_string<wchar_t,std::char_traits<wchar_t>,std::allocator<wchar_t> >
PUBLIC	??Y?$basic_string@_WU?$char_traits@_W@std@@V?$allocator@_W@2@@std@@QEAAAEAV01@AEBV01@@Z ; std::basic_string<wchar_t,std::char_traits<wchar_t>,std::allocator<wchar_t> >::operator+=
PUBLIC	?append@?$basic_string@_WU?$char_traits@_W@std@@V?$allocator@_W@2@@std@@QEAAAEAV12@AEBV12@@Z ; std::basic_string<wchar_t,std::char_traits<wchar_t>,std::allocator<wchar_t> >::append
PUBLIC	?append@?$basic_string@_WU?$char_traits@_W@std@@V?$allocator@_W@2@@std@@QEAAAEAV12@QEB_W_K@Z ; std::basic_string<wchar_t,std::char_traits<wchar_t>,std::allocator<wchar_t> >::append
PUBLIC	?assign@?$basic_string@_WU?$char_traits@_W@std@@V?$allocator@_W@2@@std@@QEAAAEAV12@QEB_W_K@Z ; std::basic_string<wchar_t,std::char_traits<wchar_t>,std::allocator<wchar_t> >::assign
PUBLIC	?insert@?$basic_string@_WU?$char_traits@_W@std@@V?$allocator@_W@2@@std@@QEAAAEAV12@_K0_W@Z ; std::basic_string<wchar_t,std::char_traits<wchar_t>,std::allocator<wchar_t> >::insert
PUBLIC	??A?$basic_string@_WU?$char_traits@_W@std@@V?$allocator@_W@2@@std@@QEAAAEA_W_K@Z ; std::basic_string<wchar_t,std::char_traits<wchar_t>,std::allocator<wchar_t> >::operator[]
PUBLIC	?c_str@?$basic_string@_WU?$char_traits@_W@std@@V?$allocator@_W@2@@std@@QEBAPEB_WXZ ; std::basic_string<wchar_t,std::char_traits<wchar_t>,std::allocator<wchar_t> >::c_str
PUBLIC	?size@?$basic_string@_WU?$char_traits@_W@std@@V?$allocator@_W@2@@std@@QEBA_KXZ ; std::basic_string<wchar_t,std::char_traits<wchar_t>,std::allocator<wchar_t> >::size
PUBLIC	?max_size@?$basic_string@_WU?$char_traits@_W@std@@V?$allocator@_W@2@@std@@QEBA_KXZ ; std::basic_string<wchar_t,std::char_traits<wchar_t>,std::allocator<wchar_t> >::max_size
PUBLIC	?_Calculate_growth@?$basic_string@_WU?$char_traits@_W@std@@V?$allocator@_W@2@@std@@CA_K_K00@Z ; std::basic_string<wchar_t,std::char_traits<wchar_t>,std::allocator<wchar_t> >::_Calculate_growth
PUBLIC	?_Calculate_growth@?$basic_string@_WU?$char_traits@_W@std@@V?$allocator@_W@2@@std@@AEBA_K_K@Z ; std::basic_string<wchar_t,std::char_traits<wchar_t>,std::allocator<wchar_t> >::_Calculate_growth
PUBLIC	?_Tidy_deallocate@?$basic_string@_WU?$char_traits@_W@std@@V?$allocator@_W@2@@std@@AEAAXXZ ; std::basic_string<wchar_t,std::char_traits<wchar_t>,std::allocator<wchar_t> >::_Tidy_deallocate
PUBLIC	?_Swap_proxy_and_iterators@?$basic_string@_WU?$char_traits@_W@std@@V?$allocator@_W@2@@std@@AEAAXAEAV12@@Z ; std::basic_string<wchar_t,std::char_traits<wchar_t>,std::allocator<wchar_t> >::_Swap_proxy_and_iterators
PUBLIC	?_Getal@?$basic_string@_WU?$char_traits@_W@std@@V?$allocator@_W@2@@std@@AEAAAEAV?$allocator@_W@2@XZ ; std::basic_string<wchar_t,std::char_traits<wchar_t>,std::allocator<wchar_t> >::_Getal
PUBLIC	?_Getal@?$basic_string@_WU?$char_traits@_W@std@@V?$allocator@_W@2@@std@@AEBAAEBV?$allocator@_W@2@XZ ; std::basic_string<wchar_t,std::char_traits<wchar_t>,std::allocator<wchar_t> >::_Getal
PUBLIC	?_Get_first@?$_Compressed_pair@V?$allocator@_W@std@@V?$_String_val@U?$_Simple_types@_W@std@@@2@$00@std@@QEAAAEAV?$allocator@_W@2@XZ ; std::_Compressed_pair<std::allocator<wchar_t>,std::_String_val<std::_Simple_types<wchar_t> >,1>::_Get_first
PUBLIC	?_Get_first@?$_Compressed_pair@V?$allocator@_W@std@@V?$_String_val@U?$_Simple_types@_W@std@@@2@$00@std@@QEBAAEBV?$allocator@_W@2@XZ ; std::_Compressed_pair<std::allocator<wchar_t>,std::_String_val<std::_Simple_types<wchar_t> >,1>::_Get_first
PUBLIC	??1?$_Compressed_pair@V?$allocator@_W@std@@V?$_String_val@U?$_Simple_types@_W@std@@@2@$00@std@@QEAA@XZ ; std::_Compressed_pair<std::allocator<wchar_t>,std::_String_val<std::_Simple_types<wchar_t> >,1>::~_Compressed_pair<std::allocator<wchar_t>,std::_String_val<std::_Simple_types<wchar_t> >,1>
PUBLIC	?to_wstring@std@@YA?AV?$basic_string@_WU?$char_traits@_W@std@@V?$allocator@_W@2@@1@K@Z ; std::to_wstring
PUBLIC	??$_UIntegral_to_string@_WK@std@@YA?AV?$basic_string@_WU?$char_traits@_W@std@@V?$allocator@_W@2@@0@K@Z ; std::_UIntegral_to_string<wchar_t,unsigned long>
PUBLIC	??0runtime_error@std@@QEAA@AEBV?$basic_string@DU?$char_traits@D@std@@V?$allocator@D@2@@1@@Z ; std::runtime_error::runtime_error
PUBLIC	??1runtime_error@std@@UEAA@XZ			; std::runtime_error::~runtime_error
PUBLIC	??0runtime_error@std@@QEAA@AEBV01@@Z		; std::runtime_error::runtime_error
PUBLIC	??_Gruntime_error@std@@UEAAPEAXI@Z		; std::runtime_error::`scalar deleting destructor'
PUBLIC	?iostream_category@std@@YAAEBVerror_category@1@XZ ; std::iostream_category
PUBLIC	??1error_category@std@@UEAA@XZ			; std::error_category::~error_category
PUBLIC	?default_error_condition@error_category@std@@UEBA?AVerror_condition@2@H@Z ; std::error_category::default_error_condition
PUBLIC	?equivalent@error_category@std@@UEBA_NHAEBVerror_condition@2@@Z ; std::error_category::equivalent
PUBLIC	?equivalent@error_category@std@@UEBA_NAEBVerror_code@2@H@Z ; std::error_category::equivalent
PUBLIC	??8error_category@std@@QEBA_NAEBV01@@Z		; std::error_category::operator==
PUBLIC	??$_Bit_cast@_KT_Addr_storage@error_category@std@@$0A@@std@@YA_KAEBT_Addr_storage@error_category@0@@Z ; std::_Bit_cast<unsigned __int64,std::error_category::_Addr_storage,0>
PUBLIC	??0error_code@std@@QEAA@HAEBVerror_category@1@@Z ; std::error_code::error_code
PUBLIC	?value@error_code@std@@QEBAHXZ			; std::error_code::value
PUBLIC	?category@error_code@std@@QEBAAEBVerror_category@2@XZ ; std::error_code::category
PUBLIC	?message@error_code@std@@QEBA?AV?$basic_string@DU?$char_traits@D@std@@V?$allocator@D@2@@2@XZ ; std::error_code::message
PUBLIC	??0error_condition@std@@QEAA@HAEBVerror_category@1@@Z ; std::error_condition::error_condition
PUBLIC	?value@error_condition@std@@QEBAHXZ		; std::error_condition::value
PUBLIC	?category@error_condition@std@@QEBAAEBVerror_category@2@XZ ; std::error_condition::category
PUBLIC	??8std@@YA_NAEBVerror_condition@0@0@Z		; std::operator==
PUBLIC	?make_error_code@std@@YA?AVerror_code@1@W4io_errc@1@@Z ; std::make_error_code
PUBLIC	?_Makestr@_System_error@std@@CA?AV?$basic_string@DU?$char_traits@D@std@@V?$allocator@D@2@@2@Verror_code@2@V32@@Z ; std::_System_error::_Makestr
PUBLIC	??0_System_error@std@@IEAA@Verror_code@1@AEBV?$basic_string@DU?$char_traits@D@std@@V?$allocator@D@2@@1@@Z ; std::_System_error::_System_error
PUBLIC	??1_System_error@std@@UEAA@XZ			; std::_System_error::~_System_error
PUBLIC	??0_System_error@std@@QEAA@AEBV01@@Z		; std::_System_error::_System_error
PUBLIC	??_G_System_error@std@@UEAAPEAXI@Z		; std::_System_error::`scalar deleting destructor'
PUBLIC	??0system_error@std@@QEAA@Verror_code@1@PEBD@Z	; std::system_error::system_error
PUBLIC	??1system_error@std@@UEAA@XZ			; std::system_error::~system_error
PUBLIC	??0system_error@std@@QEAA@AEBV01@@Z		; std::system_error::system_error
PUBLIC	??_Gsystem_error@std@@UEAAPEAXI@Z		; std::system_error::`scalar deleting destructor'
PUBLIC	?name@_Iostream_error_category2@std@@UEBAPEBDXZ	; std::_Iostream_error_category2::name
PUBLIC	?message@_Iostream_error_category2@std@@UEBA?AV?$basic_string@DU?$char_traits@D@std@@V?$allocator@D@2@@2@H@Z ; std::_Iostream_error_category2::message
PUBLIC	??1_Iostream_error_category2@std@@UEAA@XZ	; std::_Iostream_error_category2::~_Iostream_error_category2
PUBLIC	??_G_Iostream_error_category2@std@@UEAAPEAXI@Z	; std::_Iostream_error_category2::`scalar deleting destructor'
PUBLIC	??$_Immortalize_memcpy_image@V_Iostream_error_category2@std@@@std@@YAAEBV_Iostream_error_category2@0@XZ ; std::_Immortalize_memcpy_image<std::_Iostream_error_category2>
PUBLIC	??0bad_cast@std@@QEAA@XZ			; std::bad_cast::bad_cast
PUBLIC	??1bad_cast@std@@UEAA@XZ			; std::bad_cast::~bad_cast
PUBLIC	??0bad_cast@std@@QEAA@AEBV01@@Z			; std::bad_cast::bad_cast
PUBLIC	??_Gbad_cast@std@@UEAAPEAXI@Z			; std::bad_cast::`scalar deleting destructor'
PUBLIC	?_Throw_bad_cast@std@@YAXXZ			; std::_Throw_bad_cast
PUBLIC	??1_Facet_base@std@@UEAA@XZ			; std::_Facet_base::~_Facet_base
PUBLIC	??0_Facet_base@std@@QEAA@XZ			; std::_Facet_base::_Facet_base
PUBLIC	??_G_Facet_base@std@@UEAAPEAXI@Z		; std::_Facet_base::`scalar deleting destructor'
PUBLIC	??0_Locinfo@std@@QEAA@PEBD@Z			; std::_Locinfo::_Locinfo
PUBLIC	??1_Locinfo@std@@QEAA@XZ			; std::_Locinfo::~_Locinfo
PUBLIC	?_Getctype@_Locinfo@std@@QEBA?AU_Ctypevec@@XZ	; std::_Locinfo::_Getctype
PUBLIC	?_Getcvt@_Locinfo@std@@QEBA?AU_Cvtvec@@XZ	; std::_Locinfo::_Getcvt
PUBLIC	?_Getlconv@_Locinfo@std@@QEBAPEBUlconv@@XZ	; std::_Locinfo::_Getlconv
PUBLIC	?_Getfalse@_Locinfo@std@@QEBAPEBDXZ		; std::_Locinfo::_Getfalse
PUBLIC	?_Gettrue@_Locinfo@std@@QEBAPEBDXZ		; std::_Locinfo::_Gettrue
PUBLIC	??0?$_Yarn@D@std@@QEAA@XZ			; std::_Yarn<char>::_Yarn<char>
PUBLIC	??1?$_Yarn@D@std@@QEAA@XZ			; std::_Yarn<char>::~_Yarn<char>
PUBLIC	?c_str@?$_Yarn@D@std@@QEBAPEBDXZ		; std::_Yarn<char>::c_str
PUBLIC	?_Tidy@?$_Yarn@D@std@@AEAAXXZ			; std::_Yarn<char>::_Tidy
PUBLIC	??0?$_Yarn@_W@std@@QEAA@XZ			; std::_Yarn<wchar_t>::_Yarn<wchar_t>
PUBLIC	??1?$_Yarn@_W@std@@QEAA@XZ			; std::_Yarn<wchar_t>::~_Yarn<wchar_t>
PUBLIC	?_Tidy@?$_Yarn@_W@std@@AEAAXXZ			; std::_Yarn<wchar_t>::_Tidy
PUBLIC	??0id@locale@std@@QEAA@_K@Z			; std::locale::id::id
PUBLIC	??Bid@locale@std@@QEAA_KXZ			; std::locale::id::operator unsigned __int64
PUBLIC	?_Incref@facet@locale@std@@UEAAXXZ		; std::locale::facet::_Incref
PUBLIC	?_Decref@facet@locale@std@@UEAAPEAV_Facet_base@3@XZ ; std::locale::facet::_Decref
PUBLIC	??0facet@locale@std@@IEAA@_K@Z			; std::locale::facet::facet
PUBLIC	??1facet@locale@std@@MEAA@XZ			; std::locale::facet::~facet
PUBLIC	??_Gfacet@locale@std@@MEAAPEAXI@Z		; std::locale::facet::`scalar deleting destructor'
PUBLIC	??0locale@std@@QEAA@AEBV01@@Z			; std::locale::locale
PUBLIC	??0locale@std@@QEAA@XZ				; std::locale::locale
PUBLIC	??1locale@std@@QEAA@XZ				; std::locale::~locale
PUBLIC	?_C_str@locale@std@@QEBAPEBDXZ			; std::locale::_C_str
PUBLIC	?_Getfacet@locale@std@@QEBAPEBVfacet@12@_K@Z	; std::locale::_Getfacet
PUBLIC	??_Glocale@std@@QEAAPEAXI@Z			; std::locale::`scalar deleting destructor'
PUBLIC	??$_Maklocchr@_W@std@@YA_WDPEA_WAEBU_Cvtvec@@@Z	; std::_Maklocchr<wchar_t>
PUBLIC	??$_Maklocstr@_W@std@@YAPEA_WPEBDPEA_WAEBU_Cvtvec@@@Z ; std::_Maklocstr<wchar_t>
PUBLIC	??$_Adl_verify_range@PEBDPEBD@std@@YAXAEBQEBD0@Z ; std::_Adl_verify_range<char const *,char const *>
PUBLIC	??$_Adl_verify_range@PEA_WPEA_W@std@@YAXAEBQEA_W0@Z ; std::_Adl_verify_range<wchar_t *,wchar_t *>
PUBLIC	??$_Adl_verify_range@PEB_WPEB_W@std@@YAXAEBQEB_W0@Z ; std::_Adl_verify_range<wchar_t const *,wchar_t const *>
PUBLIC	??0ctype_base@std@@QEAA@_K@Z			; std::ctype_base::ctype_base
PUBLIC	??1ctype_base@std@@UEAA@XZ			; std::ctype_base::~ctype_base
PUBLIC	??_Gctype_base@std@@UEAAPEAXI@Z			; std::ctype_base::`scalar deleting destructor'
PUBLIC	?is@?$ctype@_W@std@@QEBA_NF_W@Z			; std::ctype<wchar_t>::is
PUBLIC	?widen@?$ctype@_W@std@@QEBA_WD@Z		; std::ctype<wchar_t>::widen
PUBLIC	?widen@?$ctype@_W@std@@QEBAPEBDPEBD0PEA_W@Z	; std::ctype<wchar_t>::widen
PUBLIC	??0?$ctype@_W@std@@QEAA@AEBV_Locinfo@1@_K@Z	; std::ctype<wchar_t>::ctype<wchar_t>
PUBLIC	?_Getcat@?$ctype@_W@std@@SA_KPEAPEBVfacet@locale@2@PEBV42@@Z ; std::ctype<wchar_t>::_Getcat
PUBLIC	??1?$ctype@_W@std@@MEAA@XZ			; std::ctype<wchar_t>::~ctype<wchar_t>
PUBLIC	?_Init@?$ctype@_W@std@@IEAAXAEBV_Locinfo@2@@Z	; std::ctype<wchar_t>::_Init
PUBLIC	?do_is@?$ctype@_W@std@@MEBA_NF_W@Z		; std::ctype<wchar_t>::do_is
PUBLIC	?do_is@?$ctype@_W@std@@MEBAPEB_WPEB_W0PEAF@Z	; std::ctype<wchar_t>::do_is
PUBLIC	?do_scan_is@?$ctype@_W@std@@MEBAPEB_WFPEB_W0@Z	; std::ctype<wchar_t>::do_scan_is
PUBLIC	?do_scan_not@?$ctype@_W@std@@MEBAPEB_WFPEB_W0@Z	; std::ctype<wchar_t>::do_scan_not
PUBLIC	?do_tolower@?$ctype@_W@std@@MEBA_W_W@Z		; std::ctype<wchar_t>::do_tolower
PUBLIC	?do_tolower@?$ctype@_W@std@@MEBAPEB_WPEA_WPEB_W@Z ; std::ctype<wchar_t>::do_tolower
PUBLIC	?do_toupper@?$ctype@_W@std@@MEBA_W_W@Z		; std::ctype<wchar_t>::do_toupper
PUBLIC	?do_toupper@?$ctype@_W@std@@MEBAPEB_WPEA_WPEB_W@Z ; std::ctype<wchar_t>::do_toupper
PUBLIC	?_Dowiden@?$ctype@_W@std@@IEBA_WD@Z		; std::ctype<wchar_t>::_Dowiden
PUBLIC	?do_widen@?$ctype@_W@std@@MEBA_WD@Z		; std::ctype<wchar_t>::do_widen
PUBLIC	?do_widen@?$ctype@_W@std@@MEBAPEBDPEBD0PEA_W@Z	; std::ctype<wchar_t>::do_widen
PUBLIC	?_Donarrow@?$ctype@_W@std@@IEBAD_WD@Z		; std::ctype<wchar_t>::_Donarrow
PUBLIC	?do_narrow@?$ctype@_W@std@@MEBAD_WD@Z		; std::ctype<wchar_t>::do_narrow
PUBLIC	?do_narrow@?$ctype@_W@std@@MEBAPEB_WPEB_W0DPEAD@Z ; std::ctype<wchar_t>::do_narrow
PUBLIC	??_G?$ctype@_W@std@@MEAAPEAXI@Z			; std::ctype<wchar_t>::`scalar deleting destructor'
PUBLIC	??$_Adl_verify_range@PEA_WPEB_W@std@@YAXAEBQEA_WAEBQEB_W@Z ; std::_Adl_verify_range<wchar_t *,wchar_t const *>
PUBLIC	??0failure@ios_base@std@@QEAA@PEBDAEBVerror_code@2@@Z ; std::ios_base::failure::failure
PUBLIC	??1failure@ios_base@std@@UEAA@XZ		; std::ios_base::failure::~failure
PUBLIC	??0failure@ios_base@std@@QEAA@AEBV012@@Z	; std::ios_base::failure::failure
PUBLIC	??_Gfailure@ios_base@std@@UEAAPEAXI@Z		; std::ios_base::failure::`scalar deleting destructor'
PUBLIC	?clear@ios_base@std@@QEAAXH_N@Z			; std::ios_base::clear
PUBLIC	?clear@ios_base@std@@QEAAXH@Z			; std::ios_base::clear
PUBLIC	?rdstate@ios_base@std@@QEBAHXZ			; std::ios_base::rdstate
PUBLIC	?good@ios_base@std@@QEBA_NXZ			; std::ios_base::good
PUBLIC	?flags@ios_base@std@@QEBAHXZ			; std::ios_base::flags
PUBLIC	?precision@ios_base@std@@QEBA_JXZ		; std::ios_base::precision
PUBLIC	?width@ios_base@std@@QEBA_JXZ			; std::ios_base::width
PUBLIC	?width@ios_base@std@@QEAA_J_J@Z			; std::ios_base::width
PUBLIC	?getloc@ios_base@std@@QEBA?AVlocale@2@XZ	; std::ios_base::getloc
PUBLIC	??1ios_base@std@@UEAA@XZ			; std::ios_base::~ios_base
PUBLIC	??0ios_base@std@@IEAA@XZ			; std::ios_base::ios_base
PUBLIC	?_Init@ios_base@std@@IEAAXXZ			; std::ios_base::_Init
PUBLIC	??_Gios_base@std@@UEAAPEAXI@Z			; std::ios_base::`scalar deleting destructor'
PUBLIC	?InitializeFunctions@@YA_NXZ			; InitializeFunctions
PUBLIC	?to_wstring@@YA?AV?$basic_string@_WU?$char_traits@_W@std@@V?$allocator@_W@2@@std@@H@Z ; to_wstring
PUBLIC	??1?$basic_ios@_WU?$char_traits@_W@std@@@std@@UEAA@XZ ; std::basic_ios<wchar_t,std::char_traits<wchar_t> >::~basic_ios<wchar_t,std::char_traits<wchar_t> >
PUBLIC	?clear@?$basic_ios@_WU?$char_traits@_W@std@@@std@@QEAAXH_N@Z ; std::basic_ios<wchar_t,std::char_traits<wchar_t> >::clear
PUBLIC	?setstate@?$basic_ios@_WU?$char_traits@_W@std@@@std@@QEAAXH_N@Z ; std::basic_ios<wchar_t,std::char_traits<wchar_t> >::setstate
PUBLIC	?tie@?$basic_ios@_WU?$char_traits@_W@std@@@std@@QEBAPEAV?$basic_ostream@_WU?$char_traits@_W@std@@@2@XZ ; std::basic_ios<wchar_t,std::char_traits<wchar_t> >::tie
PUBLIC	?rdbuf@?$basic_ios@_WU?$char_traits@_W@std@@@std@@QEBAPEAV?$basic_streambuf@_WU?$char_traits@_W@std@@@2@XZ ; std::basic_ios<wchar_t,std::char_traits<wchar_t> >::rdbuf
PUBLIC	?fill@?$basic_ios@_WU?$char_traits@_W@std@@@std@@QEBA_WXZ ; std::basic_ios<wchar_t,std::char_traits<wchar_t> >::fill
PUBLIC	?widen@?$basic_ios@_WU?$char_traits@_W@std@@@std@@QEBA_WD@Z ; std::basic_ios<wchar_t,std::char_traits<wchar_t> >::widen
PUBLIC	?init@?$basic_ios@_WU?$char_traits@_W@std@@@std@@IEAAXPEAV?$basic_streambuf@_WU?$char_traits@_W@std@@@2@_N@Z ; std::basic_ios<wchar_t,std::char_traits<wchar_t> >::init
PUBLIC	??0?$basic_ios@_WU?$char_traits@_W@std@@@std@@IEAA@XZ ; std::basic_ios<wchar_t,std::char_traits<wchar_t> >::basic_ios<wchar_t,std::char_traits<wchar_t> >
PUBLIC	??_G?$basic_ios@_WU?$char_traits@_W@std@@@std@@UEAAPEAXI@Z ; std::basic_ios<wchar_t,std::char_traits<wchar_t> >::`scalar deleting destructor'
PUBLIC	??0?$basic_istream@_WU?$char_traits@_W@std@@@std@@QEAA@PEAV?$basic_streambuf@_WU?$char_traits@_W@std@@@1@_N@Z ; std::basic_istream<wchar_t,std::char_traits<wchar_t> >::basic_istream<wchar_t,std::char_traits<wchar_t> >
PUBLIC	??1?$basic_istream@_WU?$char_traits@_W@std@@@std@@UEAA@XZ ; std::basic_istream<wchar_t,std::char_traits<wchar_t> >::~basic_istream<wchar_t,std::char_traits<wchar_t> >
PUBLIC	??_G?$basic_istream@_WU?$char_traits@_W@std@@@std@@UEAAPEAXI@Z ; std::basic_istream<wchar_t,std::char_traits<wchar_t> >::`scalar deleting destructor'
PUBLIC	??_D?$basic_istream@_WU?$char_traits@_W@std@@@std@@QEAAXXZ ; std::basic_istream<wchar_t,std::char_traits<wchar_t> >::`vbase destructor'
PUBLIC	??0?$basic_ostream@_WU?$char_traits@_W@std@@@std@@QEAA@W4_Uninitialized@1@_N@Z ; std::basic_ostream<wchar_t,std::char_traits<wchar_t> >::basic_ostream<wchar_t,std::char_traits<wchar_t> >
PUBLIC	??1?$basic_ostream@_WU?$char_traits@_W@std@@@std@@UEAA@XZ ; std::basic_ostream<wchar_t,std::char_traits<wchar_t> >::~basic_ostream<wchar_t,std::char_traits<wchar_t> >
PUBLIC	?_Osfx@?$basic_ostream@_WU?$char_traits@_W@std@@@std@@QEAAXXZ ; std::basic_ostream<wchar_t,std::char_traits<wchar_t> >::_Osfx
PUBLIC	??6?$basic_ostream@_WU?$char_traits@_W@std@@@std@@QEAAAEAV01@H@Z ; std::basic_ostream<wchar_t,std::char_traits<wchar_t> >::operator<<
PUBLIC	?flush@?$basic_ostream@_WU?$char_traits@_W@std@@@std@@QEAAAEAV12@XZ ; std::basic_ostream<wchar_t,std::char_traits<wchar_t> >::flush
PUBLIC	??_G?$basic_ostream@_WU?$char_traits@_W@std@@@std@@UEAAPEAXI@Z ; std::basic_ostream<wchar_t,std::char_traits<wchar_t> >::`scalar deleting destructor'
PUBLIC	??_D?$basic_ostream@_WU?$char_traits@_W@std@@@std@@QEAAXXZ ; std::basic_ostream<wchar_t,std::char_traits<wchar_t> >::`vbase destructor'
PUBLIC	??0?$basic_iostream@_WU?$char_traits@_W@std@@@std@@QEAA@PEAV?$basic_streambuf@_WU?$char_traits@_W@std@@@1@@Z ; std::basic_iostream<wchar_t,std::char_traits<wchar_t> >::basic_iostream<wchar_t,std::char_traits<wchar_t> >
PUBLIC	??1?$basic_iostream@_WU?$char_traits@_W@std@@@std@@UEAA@XZ ; std::basic_iostream<wchar_t,std::char_traits<wchar_t> >::~basic_iostream<wchar_t,std::char_traits<wchar_t> >
PUBLIC	??_G?$basic_iostream@_WU?$char_traits@_W@std@@@std@@UEAAPEAXI@Z ; std::basic_iostream<wchar_t,std::char_traits<wchar_t> >::`scalar deleting destructor'
PUBLIC	??_D?$basic_iostream@_WU?$char_traits@_W@std@@@std@@QEAAXXZ ; std::basic_iostream<wchar_t,std::char_traits<wchar_t> >::`vbase destructor'
PUBLIC	??0?$basic_stringstream@_WU?$char_traits@_W@std@@V?$allocator@_W@2@@std@@QEAA@XZ ; std::basic_stringstream<wchar_t,std::char_traits<wchar_t>,std::allocator<wchar_t> >::basic_stringstream<wchar_t,std::char_traits<wchar_t>,std::allocator<wchar_t> >
PUBLIC	??1?$basic_stringstream@_WU?$char_traits@_W@std@@V?$allocator@_W@2@@std@@UEAA@XZ ; std::basic_stringstream<wchar_t,std::char_traits<wchar_t>,std::allocator<wchar_t> >::~basic_stringstream<wchar_t,std::char_traits<wchar_t>,std::allocator<wchar_t> >
PUBLIC	?str@?$basic_stringstream@_WU?$char_traits@_W@std@@V?$allocator@_W@2@@std@@QEBA?AV?$basic_string@_WU?$char_traits@_W@std@@V?$allocator@_W@2@@2@XZ ; std::basic_stringstream<wchar_t,std::char_traits<wchar_t>,std::allocator<wchar_t> >::str
PUBLIC	??0?$basic_streambuf@_WU?$char_traits@_W@std@@@std@@IEAA@XZ ; std::basic_streambuf<wchar_t,std::char_traits<wchar_t> >::basic_streambuf<wchar_t,std::char_traits<wchar_t> >
PUBLIC	??1?$basic_streambuf@_WU?$char_traits@_W@std@@@std@@UEAA@XZ ; std::basic_streambuf<wchar_t,std::char_traits<wchar_t> >::~basic_streambuf<wchar_t,std::char_traits<wchar_t> >
PUBLIC	?pubsync@?$basic_streambuf@_WU?$char_traits@_W@std@@@std@@QEAAHXZ ; std::basic_streambuf<wchar_t,std::char_traits<wchar_t> >::pubsync
PUBLIC	?sputc@?$basic_streambuf@_WU?$char_traits@_W@std@@@std@@QEAAG_W@Z ; std::basic_streambuf<wchar_t,std::char_traits<wchar_t> >::sputc
PUBLIC	?_Lock@?$basic_streambuf@_WU?$char_traits@_W@std@@@std@@UEAAXXZ ; std::basic_streambuf<wchar_t,std::char_traits<wchar_t> >::_Lock
PUBLIC	?_Unlock@?$basic_streambuf@_WU?$char_traits@_W@std@@@std@@UEAAXXZ ; std::basic_streambuf<wchar_t,std::char_traits<wchar_t> >::_Unlock
PUBLIC	?eback@?$basic_streambuf@_WU?$char_traits@_W@std@@@std@@IEBAPEA_WXZ ; std::basic_streambuf<wchar_t,std::char_traits<wchar_t> >::eback
PUBLIC	?gptr@?$basic_streambuf@_WU?$char_traits@_W@std@@@std@@IEBAPEA_WXZ ; std::basic_streambuf<wchar_t,std::char_traits<wchar_t> >::gptr
PUBLIC	?pbase@?$basic_streambuf@_WU?$char_traits@_W@std@@@std@@IEBAPEA_WXZ ; std::basic_streambuf<wchar_t,std::char_traits<wchar_t> >::pbase
PUBLIC	?pptr@?$basic_streambuf@_WU?$char_traits@_W@std@@@std@@IEBAPEA_WXZ ; std::basic_streambuf<wchar_t,std::char_traits<wchar_t> >::pptr
PUBLIC	?egptr@?$basic_streambuf@_WU?$char_traits@_W@std@@@std@@IEBAPEA_WXZ ; std::basic_streambuf<wchar_t,std::char_traits<wchar_t> >::egptr
PUBLIC	?gbump@?$basic_streambuf@_WU?$char_traits@_W@std@@@std@@IEAAXH@Z ; std::basic_streambuf<wchar_t,std::char_traits<wchar_t> >::gbump
PUBLIC	?setg@?$basic_streambuf@_WU?$char_traits@_W@std@@@std@@IEAAXPEA_W00@Z ; std::basic_streambuf<wchar_t,std::char_traits<wchar_t> >::setg
PUBLIC	?epptr@?$basic_streambuf@_WU?$char_traits@_W@std@@@std@@IEBAPEA_WXZ ; std::basic_streambuf<wchar_t,std::char_traits<wchar_t> >::epptr
PUBLIC	?_Gninc@?$basic_streambuf@_WU?$char_traits@_W@std@@@std@@IEAAPEA_WXZ ; std::basic_streambuf<wchar_t,std::char_traits<wchar_t> >::_Gninc
PUBLIC	?_Gnavail@?$basic_streambuf@_WU?$char_traits@_W@std@@@std@@IEBA_JXZ ; std::basic_streambuf<wchar_t,std::char_traits<wchar_t> >::_Gnavail
PUBLIC	?pbump@?$basic_streambuf@_WU?$char_traits@_W@std@@@std@@IEAAXH@Z ; std::basic_streambuf<wchar_t,std::char_traits<wchar_t> >::pbump
PUBLIC	?setp@?$basic_streambuf@_WU?$char_traits@_W@std@@@std@@IEAAXPEA_W0@Z ; std::basic_streambuf<wchar_t,std::char_traits<wchar_t> >::setp
PUBLIC	?setp@?$basic_streambuf@_WU?$char_traits@_W@std@@@std@@IEAAXPEA_W00@Z ; std::basic_streambuf<wchar_t,std::char_traits<wchar_t> >::setp
PUBLIC	?_Pninc@?$basic_streambuf@_WU?$char_traits@_W@std@@@std@@IEAAPEA_WXZ ; std::basic_streambuf<wchar_t,std::char_traits<wchar_t> >::_Pninc
PUBLIC	?_Pnavail@?$basic_streambuf@_WU?$char_traits@_W@std@@@std@@IEBA_JXZ ; std::basic_streambuf<wchar_t,std::char_traits<wchar_t> >::_Pnavail
PUBLIC	?_Init@?$basic_streambuf@_WU?$char_traits@_W@std@@@std@@IEAAXXZ ; std::basic_streambuf<wchar_t,std::char_traits<wchar_t> >::_Init
PUBLIC	?overflow@?$basic_streambuf@_WU?$char_traits@_W@std@@@std@@MEAAGG@Z ; std::basic_streambuf<wchar_t,std::char_traits<wchar_t> >::overflow
PUBLIC	?pbackfail@?$basic_streambuf@_WU?$char_traits@_W@std@@@std@@MEAAGG@Z ; std::basic_streambuf<wchar_t,std::char_traits<wchar_t> >::pbackfail
PUBLIC	?showmanyc@?$basic_streambuf@_WU?$char_traits@_W@std@@@std@@MEAA_JXZ ; std::basic_streambuf<wchar_t,std::char_traits<wchar_t> >::showmanyc
PUBLIC	?underflow@?$basic_streambuf@_WU?$char_traits@_W@std@@@std@@MEAAGXZ ; std::basic_streambuf<wchar_t,std::char_traits<wchar_t> >::underflow
PUBLIC	?uflow@?$basic_streambuf@_WU?$char_traits@_W@std@@@std@@MEAAGXZ ; std::basic_streambuf<wchar_t,std::char_traits<wchar_t> >::uflow
PUBLIC	?xsgetn@?$basic_streambuf@_WU?$char_traits@_W@std@@@std@@MEAA_JPEA_W_J@Z ; std::basic_streambuf<wchar_t,std::char_traits<wchar_t> >::xsgetn
PUBLIC	?xsputn@?$basic_streambuf@_WU?$char_traits@_W@std@@@std@@MEAA_JPEB_W_J@Z ; std::basic_streambuf<wchar_t,std::char_traits<wchar_t> >::xsputn
PUBLIC	?seekoff@?$basic_streambuf@_WU?$char_traits@_W@std@@@std@@MEAA?AV?$fpos@U_Mbstatet@@@2@_JHH@Z ; std::basic_streambuf<wchar_t,std::char_traits<wchar_t> >::seekoff
PUBLIC	?seekpos@?$basic_streambuf@_WU?$char_traits@_W@std@@@std@@MEAA?AV?$fpos@U_Mbstatet@@@2@V32@H@Z ; std::basic_streambuf<wchar_t,std::char_traits<wchar_t> >::seekpos
PUBLIC	?setbuf@?$basic_streambuf@_WU?$char_traits@_W@std@@@std@@MEAAPEAV12@PEA_W_J@Z ; std::basic_streambuf<wchar_t,std::char_traits<wchar_t> >::setbuf
PUBLIC	?sync@?$basic_streambuf@_WU?$char_traits@_W@std@@@std@@MEAAHXZ ; std::basic_streambuf<wchar_t,std::char_traits<wchar_t> >::sync
PUBLIC	?imbue@?$basic_streambuf@_WU?$char_traits@_W@std@@@std@@MEAAXAEBVlocale@2@@Z ; std::basic_streambuf<wchar_t,std::char_traits<wchar_t> >::imbue
PUBLIC	??_G?$basic_streambuf@_WU?$char_traits@_W@std@@@std@@UEAAPEAXI@Z ; std::basic_streambuf<wchar_t,std::char_traits<wchar_t> >::`scalar deleting destructor'
PUBLIC	??0?$basic_stringbuf@_WU?$char_traits@_W@std@@V?$allocator@_W@2@@std@@QEAA@H@Z ; std::basic_stringbuf<wchar_t,std::char_traits<wchar_t>,std::allocator<wchar_t> >::basic_stringbuf<wchar_t,std::char_traits<wchar_t>,std::allocator<wchar_t> >
PUBLIC	??1?$basic_stringbuf@_WU?$char_traits@_W@std@@V?$allocator@_W@2@@std@@UEAA@XZ ; std::basic_stringbuf<wchar_t,std::char_traits<wchar_t>,std::allocator<wchar_t> >::~basic_stringbuf<wchar_t,std::char_traits<wchar_t>,std::allocator<wchar_t> >
PUBLIC	?_Get_buffer_view@?$basic_stringbuf@_WU?$char_traits@_W@std@@V?$allocator@_W@2@@std@@QEBA?AU_Buffer_view@12@XZ ; std::basic_stringbuf<wchar_t,std::char_traits<wchar_t>,std::allocator<wchar_t> >::_Get_buffer_view
PUBLIC	?str@?$basic_stringbuf@_WU?$char_traits@_W@std@@V?$allocator@_W@2@@std@@QEBA?AV?$basic_string@_WU?$char_traits@_W@std@@V?$allocator@_W@2@@2@XZ ; std::basic_stringbuf<wchar_t,std::char_traits<wchar_t>,std::allocator<wchar_t> >::str
PUBLIC	?overflow@?$basic_stringbuf@_WU?$char_traits@_W@std@@V?$allocator@_W@2@@std@@MEAAGG@Z ; std::basic_stringbuf<wchar_t,std::char_traits<wchar_t>,std::allocator<wchar_t> >::overflow
PUBLIC	?pbackfail@?$basic_stringbuf@_WU?$char_traits@_W@std@@V?$allocator@_W@2@@std@@MEAAGG@Z ; std::basic_stringbuf<wchar_t,std::char_traits<wchar_t>,std::allocator<wchar_t> >::pbackfail
PUBLIC	?underflow@?$basic_stringbuf@_WU?$char_traits@_W@std@@V?$allocator@_W@2@@std@@MEAAGXZ ; std::basic_stringbuf<wchar_t,std::char_traits<wchar_t>,std::allocator<wchar_t> >::underflow
PUBLIC	?seekoff@?$basic_stringbuf@_WU?$char_traits@_W@std@@V?$allocator@_W@2@@std@@MEAA?AV?$fpos@U_Mbstatet@@@2@_JHH@Z ; std::basic_stringbuf<wchar_t,std::char_traits<wchar_t>,std::allocator<wchar_t> >::seekoff
PUBLIC	?seekpos@?$basic_stringbuf@_WU?$char_traits@_W@std@@V?$allocator@_W@2@@std@@MEAA?AV?$fpos@U_Mbstatet@@@2@V32@H@Z ; std::basic_stringbuf<wchar_t,std::char_traits<wchar_t>,std::allocator<wchar_t> >::seekpos
PUBLIC	?_Tidy@?$basic_stringbuf@_WU?$char_traits@_W@std@@V?$allocator@_W@2@@std@@IEAAXXZ ; std::basic_stringbuf<wchar_t,std::char_traits<wchar_t>,std::allocator<wchar_t> >::_Tidy
PUBLIC	?_Getstate@?$basic_stringbuf@_WU?$char_traits@_W@std@@V?$allocator@_W@2@@std@@CAHH@Z ; std::basic_stringbuf<wchar_t,std::char_traits<wchar_t>,std::allocator<wchar_t> >::_Getstate
PUBLIC	??_G?$basic_stringbuf@_WU?$char_traits@_W@std@@V?$allocator@_W@2@@std@@UEAAPEAXI@Z ; std::basic_stringbuf<wchar_t,std::char_traits<wchar_t>,std::allocator<wchar_t> >::`scalar deleting destructor'
PUBLIC	??_G?$basic_stringstream@_WU?$char_traits@_W@std@@V?$allocator@_W@2@@std@@UEAAPEAXI@Z ; std::basic_stringstream<wchar_t,std::char_traits<wchar_t>,std::allocator<wchar_t> >::`scalar deleting destructor'
PUBLIC	??_D?$basic_stringstream@_WU?$char_traits@_W@std@@V?$allocator@_W@2@@std@@QEAAXXZ ; std::basic_stringstream<wchar_t,std::char_traits<wchar_t>,std::allocator<wchar_t> >::`vbase destructor'
PUBLIC	?showError@@YAXK@Z				; showError
PUBLIC	?CopyTextToShell@@YA_NPEAXK@Z			; CopyTextToShell
PUBLIC	?AddShellSectionAndModifyEntryPoint@@YA_NPEAX@Z	; AddShellSectionAndModifyEntryPoint
PUBLIC	?ALIGN_UP@@YAKKK@Z				; ALIGN_UP
PUBLIC	?GetTextSection@@YAPEAXPEAXPEAK@Z		; GetTextSection
PUBLIC	main
PUBLIC	??0?$fpos@U_Mbstatet@@@std@@QEAA@_J@Z		; std::fpos<_Mbstatet>::fpos<_Mbstatet>
PUBLIC	??B?$fpos@U_Mbstatet@@@std@@QEBA_JXZ		; std::fpos<_Mbstatet>::operator __int64
PUBLIC	??$max@PEA_W@std@@YAAEBQEA_WAEBQEA_W0@Z		; std::max<wchar_t *>
PUBLIC	??$_Allocate_at_least_helper@V?$allocator@_W@std@@@std@@YAPEA_WAEAV?$allocator@_W@0@AEA_K@Z ; std::_Allocate_at_least_helper<std::allocator<wchar_t> >
PUBLIC	??$_Unfancy@_W@std@@YAPEA_WPEA_W@Z		; std::_Unfancy<wchar_t>
PUBLIC	?pointer_to@?$pointer_traits@PEA_W@std@@SAPEA_WAEA_W@Z ; std::pointer_traits<wchar_t *>::pointer_to
PUBLIC	??$addressof@V?$basic_stringbuf@_WU?$char_traits@_W@std@@V?$allocator@_W@2@@std@@@std@@YAPEAV?$basic_stringbuf@_WU?$char_traits@_W@std@@V?$allocator@_W@2@@0@AEAV10@@Z ; std::addressof<std::basic_stringbuf<wchar_t,std::char_traits<wchar_t>,std::allocator<wchar_t> > >
PUBLIC	??0_Sentry_base@?$basic_ostream@_WU?$char_traits@_W@std@@@std@@QEAA@AEAV12@@Z ; std::basic_ostream<wchar_t,std::char_traits<wchar_t> >::_Sentry_base::_Sentry_base
PUBLIC	??1_Sentry_base@?$basic_ostream@_WU?$char_traits@_W@std@@@std@@QEAA@XZ ; std::basic_ostream<wchar_t,std::char_traits<wchar_t> >::_Sentry_base::~_Sentry_base
PUBLIC	??0sentry@?$basic_ostream@_WU?$char_traits@_W@std@@@std@@QEAA@AEAV12@@Z ; std::basic_ostream<wchar_t,std::char_traits<wchar_t> >::sentry::sentry
PUBLIC	??1sentry@?$basic_ostream@_WU?$char_traits@_W@std@@@std@@QEAA@XZ ; std::basic_ostream<wchar_t,std::char_traits<wchar_t> >::sentry::~sentry
PUBLIC	??Bsentry@?$basic_ostream@_WU?$char_traits@_W@std@@@std@@QEBA_NXZ ; std::basic_ostream<wchar_t,std::char_traits<wchar_t> >::sentry::operator bool
PUBLIC	??$use_facet@V?$num_put@_WV?$ostreambuf_iterator@_WU?$char_traits@_W@std@@@std@@@std@@@std@@YAAEBV?$num_put@_WV?$ostreambuf_iterator@_WU?$char_traits@_W@std@@@std@@@0@AEBVlocale@0@@Z ; std::use_facet<std::num_put<wchar_t,std::ostreambuf_iterator<wchar_t,std::char_traits<wchar_t> > > >
PUBLIC	?_Getcat@?$num_put@_WV?$ostreambuf_iterator@_WU?$char_traits@_W@std@@@std@@@std@@SA_KPEAPEBVfacet@locale@2@PEBV42@@Z ; std::num_put<wchar_t,std::ostreambuf_iterator<wchar_t,std::char_traits<wchar_t> > >::_Getcat
PUBLIC	??1?$num_put@_WV?$ostreambuf_iterator@_WU?$char_traits@_W@std@@@std@@@std@@MEAA@XZ ; std::num_put<wchar_t,std::ostreambuf_iterator<wchar_t,std::char_traits<wchar_t> > >::~num_put<wchar_t,std::ostreambuf_iterator<wchar_t,std::char_traits<wchar_t> > >
PUBLIC	?_Init@?$num_put@_WV?$ostreambuf_iterator@_WU?$char_traits@_W@std@@@std@@@std@@IEAAXAEBV_Locinfo@2@@Z ; std::num_put<wchar_t,std::ostreambuf_iterator<wchar_t,std::char_traits<wchar_t> > >::_Init
PUBLIC	??0?$num_put@_WV?$ostreambuf_iterator@_WU?$char_traits@_W@std@@@std@@@std@@QEAA@AEBV_Locinfo@1@_K@Z ; std::num_put<wchar_t,std::ostreambuf_iterator<wchar_t,std::char_traits<wchar_t> > >::num_put<wchar_t,std::ostreambuf_iterator<wchar_t,std::char_traits<wchar_t> > >
PUBLIC	?put@?$num_put@_WV?$ostreambuf_iterator@_WU?$char_traits@_W@std@@@std@@@std@@QEBA?AV?$ostreambuf_iterator@_WU?$char_traits@_W@std@@@2@V32@AEAVios_base@2@_WJ@Z ; std::num_put<wchar_t,std::ostreambuf_iterator<wchar_t,std::char_traits<wchar_t> > >::put
PUBLIC	?do_put@?$num_put@_WV?$ostreambuf_iterator@_WU?$char_traits@_W@std@@@std@@@std@@MEBA?AV?$ostreambuf_iterator@_WU?$char_traits@_W@std@@@2@V32@AEAVios_base@2@_W_N@Z ; std::num_put<wchar_t,std::ostreambuf_iterator<wchar_t,std::char_traits<wchar_t> > >::do_put
PUBLIC	?do_put@?$num_put@_WV?$ostreambuf_iterator@_WU?$char_traits@_W@std@@@std@@@std@@MEBA?AV?$ostreambuf_iterator@_WU?$char_traits@_W@std@@@2@V32@AEAVios_base@2@_WJ@Z ; std::num_put<wchar_t,std::ostreambuf_iterator<wchar_t,std::char_traits<wchar_t> > >::do_put
PUBLIC	?do_put@?$num_put@_WV?$ostreambuf_iterator@_WU?$char_traits@_W@std@@@std@@@std@@MEBA?AV?$ostreambuf_iterator@_WU?$char_traits@_W@std@@@2@V32@AEAVios_base@2@_WK@Z ; std::num_put<wchar_t,std::ostreambuf_iterator<wchar_t,std::char_traits<wchar_t> > >::do_put
PUBLIC	?do_put@?$num_put@_WV?$ostreambuf_iterator@_WU?$char_traits@_W@std@@@std@@@std@@MEBA?AV?$ostreambuf_iterator@_WU?$char_traits@_W@std@@@2@V32@AEAVios_base@2@_W_J@Z ; std::num_put<wchar_t,std::ostreambuf_iterator<wchar_t,std::char_traits<wchar_t> > >::do_put
PUBLIC	?do_put@?$num_put@_WV?$ostreambuf_iterator@_WU?$char_traits@_W@std@@@std@@@std@@MEBA?AV?$ostreambuf_iterator@_WU?$char_traits@_W@std@@@2@V32@AEAVios_base@2@_W_K@Z ; std::num_put<wchar_t,std::ostreambuf_iterator<wchar_t,std::char_traits<wchar_t> > >::do_put
PUBLIC	?do_put@?$num_put@_WV?$ostreambuf_iterator@_WU?$char_traits@_W@std@@@std@@@std@@MEBA?AV?$ostreambuf_iterator@_WU?$char_traits@_W@std@@@2@V32@AEAVios_base@2@_WN@Z ; std::num_put<wchar_t,std::ostreambuf_iterator<wchar_t,std::char_traits<wchar_t> > >::do_put
PUBLIC	?do_put@?$num_put@_WV?$ostreambuf_iterator@_WU?$char_traits@_W@std@@@std@@@std@@MEBA?AV?$ostreambuf_iterator@_WU?$char_traits@_W@std@@@2@V32@AEAVios_base@2@_WO@Z ; std::num_put<wchar_t,std::ostreambuf_iterator<wchar_t,std::char_traits<wchar_t> > >::do_put
PUBLIC	?do_put@?$num_put@_WV?$ostreambuf_iterator@_WU?$char_traits@_W@std@@@std@@@std@@MEBA?AV?$ostreambuf_iterator@_WU?$char_traits@_W@std@@@2@V32@AEAVios_base@2@_WPEBX@Z ; std::num_put<wchar_t,std::ostreambuf_iterator<wchar_t,std::char_traits<wchar_t> > >::do_put
PUBLIC	?_Ffmt@?$num_put@_WV?$ostreambuf_iterator@_WU?$char_traits@_W@std@@@std@@@std@@AEBAPEADPEADDH@Z ; std::num_put<wchar_t,std::ostreambuf_iterator<wchar_t,std::char_traits<wchar_t> > >::_Ffmt
PUBLIC	?_Ifmt@?$num_put@_WV?$ostreambuf_iterator@_WU?$char_traits@_W@std@@@std@@@std@@AEBAPEADPEADPEBDH@Z ; std::num_put<wchar_t,std::ostreambuf_iterator<wchar_t,std::char_traits<wchar_t> > >::_Ifmt
PUBLIC	?_Iput@?$num_put@_WV?$ostreambuf_iterator@_WU?$char_traits@_W@std@@@std@@@std@@AEBA?AV?$ostreambuf_iterator@_WU?$char_traits@_W@std@@@2@V32@AEAVios_base@2@_WPEAD_K@Z ; std::num_put<wchar_t,std::ostreambuf_iterator<wchar_t,std::char_traits<wchar_t> > >::_Iput
PUBLIC	?_Put@?$num_put@_WV?$ostreambuf_iterator@_WU?$char_traits@_W@std@@@std@@@std@@AEBA?AV?$ostreambuf_iterator@_WU?$char_traits@_W@std@@@2@V32@PEB_W_K@Z ; std::num_put<wchar_t,std::ostreambuf_iterator<wchar_t,std::char_traits<wchar_t> > >::_Put
PUBLIC	?_Rep@?$num_put@_WV?$ostreambuf_iterator@_WU?$char_traits@_W@std@@@std@@@std@@AEBA?AV?$ostreambuf_iterator@_WU?$char_traits@_W@std@@@2@V32@_W_K@Z ; std::num_put<wchar_t,std::ostreambuf_iterator<wchar_t,std::char_traits<wchar_t> > >::_Rep
PUBLIC	??_G?$num_put@_WV?$ostreambuf_iterator@_WU?$char_traits@_W@std@@@std@@@std@@MEAAPEAXI@Z ; std::num_put<wchar_t,std::ostreambuf_iterator<wchar_t,std::char_traits<wchar_t> > >::`scalar deleting destructor'
PUBLIC	??0?$ostreambuf_iterator@_WU?$char_traits@_W@std@@@std@@QEAA@PEAV?$basic_streambuf@_WU?$char_traits@_W@std@@@1@@Z ; std::ostreambuf_iterator<wchar_t,std::char_traits<wchar_t> >::ostreambuf_iterator<wchar_t,std::char_traits<wchar_t> >
PUBLIC	??4?$ostreambuf_iterator@_WU?$char_traits@_W@std@@@std@@QEAAAEAV01@_W@Z ; std::ostreambuf_iterator<wchar_t,std::char_traits<wchar_t> >::operator=
PUBLIC	??D?$ostreambuf_iterator@_WU?$char_traits@_W@std@@@std@@QEAAAEAV01@XZ ; std::ostreambuf_iterator<wchar_t,std::char_traits<wchar_t> >::operator*
PUBLIC	??E?$ostreambuf_iterator@_WU?$char_traits@_W@std@@@std@@QEAAAEAV01@XZ ; std::ostreambuf_iterator<wchar_t,std::char_traits<wchar_t> >::operator++
PUBLIC	?failed@?$ostreambuf_iterator@_WU?$char_traits@_W@std@@@std@@QEBA_NXZ ; std::ostreambuf_iterator<wchar_t,std::char_traits<wchar_t> >::failed
PUBLIC	??$move@AEAV?$allocator@_W@std@@@std@@YA$$QEAV?$allocator@_W@0@AEAV10@@Z ; std::move<std::allocator<wchar_t> &>
PUBLIC	??$?0V?$allocator@_W@std@@$$V@?$_Compressed_pair@V?$allocator@_W@std@@V?$_String_val@U?$_Simple_types@_W@std@@@2@$00@std@@QEAA@U_One_then_variadic_args_t@1@$$QEAV?$allocator@_W@1@@Z ; std::_Compressed_pair<std::allocator<wchar_t>,std::_String_val<std::_Simple_types<wchar_t> >,1>::_Compressed_pair<std::allocator<wchar_t>,std::_String_val<std::_Simple_types<wchar_t> >,1><std::allocator<wchar_t> >
PUBLIC	??$?0$$V@?$_Compressed_pair@V?$allocator@_W@std@@V?$_String_val@U?$_Simple_types@_W@std@@@2@$00@std@@QEAA@U_Zero_then_variadic_args_t@1@@Z ; std::_Compressed_pair<std::allocator<wchar_t>,std::_String_val<std::_Simple_types<wchar_t> >,1>::_Compressed_pair<std::allocator<wchar_t>,std::_String_val<std::_Simple_types<wchar_t> >,1><>
PUBLIC	??$_Construct@$0A@_W@?$basic_string@_WU?$char_traits@_W@std@@V?$allocator@_W@2@@std@@AEAAX_W_K@Z ; std::basic_string<wchar_t,std::char_traits<wchar_t>,std::allocator<wchar_t> >::_Construct<0,wchar_t>
PUBLIC	??$_Convert_size@_K_K@std@@YA_K_K@Z		; std::_Convert_size<unsigned __int64,unsigned __int64>
PUBLIC	??$_Construct@$00PEB_W@?$basic_string@_WU?$char_traits@_W@std@@V?$allocator@_W@2@@std@@AEAAXQEB_W_K@Z ; std::basic_string<wchar_t,std::char_traits<wchar_t>,std::allocator<wchar_t> >::_Construct<1,wchar_t const *>
PUBLIC	??$move@AEAV?$allocator@D@std@@@std@@YA$$QEAV?$allocator@D@0@AEAV10@@Z ; std::move<std::allocator<char> &>
PUBLIC	??$?0V?$allocator@D@std@@$$V@?$_Compressed_pair@V?$allocator@D@std@@V?$_String_val@U?$_Simple_types@D@std@@@2@$00@std@@QEAA@U_One_then_variadic_args_t@1@$$QEAV?$allocator@D@1@@Z ; std::_Compressed_pair<std::allocator<char>,std::_String_val<std::_Simple_types<char> >,1>::_Compressed_pair<std::allocator<char>,std::_String_val<std::_Simple_types<char> >,1><std::allocator<char> >
PUBLIC	??$?0$$V@?$_Compressed_pair@V?$allocator@D@std@@V?$_String_val@U?$_Simple_types@D@std@@@2@$00@std@@QEAA@U_Zero_then_variadic_args_t@1@@Z ; std::_Compressed_pair<std::allocator<char>,std::_String_val<std::_Simple_types<char> >,1>::_Compressed_pair<std::allocator<char>,std::_String_val<std::_Simple_types<char> >,1><>
PUBLIC	??$_Construct@$00PEBD@?$basic_string@DU?$char_traits@D@std@@V?$allocator@D@2@@std@@AEAAXQEBD_K@Z ; std::basic_string<char,std::char_traits<char>,std::allocator<char> >::_Construct<1,char const *>
PUBLIC	??$_Construct@$01PEBD@?$basic_string@DU?$char_traits@D@std@@V?$allocator@D@2@@std@@AEAAXQEBD_K@Z ; std::basic_string<char,std::char_traits<char>,std::allocator<char> >::_Construct<2,char const *>
PUBLIC	??$_Float_put_desired_precision@O@std@@YAH_JH@Z	; std::_Float_put_desired_precision<long double>
PUBLIC	??$isfinite@O@@YA_NO@Z				; isfinite<long double>
PUBLIC	??$_Fput_v3@$0A@@?$num_put@_WV?$ostreambuf_iterator@_WU?$char_traits@_W@std@@@std@@@std@@AEBA?AV?$ostreambuf_iterator@_WU?$char_traits@_W@std@@@1@V21@AEAVios_base@1@_WPEBD_K_N@Z ; std::num_put<wchar_t,std::ostreambuf_iterator<wchar_t,std::char_traits<wchar_t> > >::_Fput_v3<0>
PUBLIC	??$_Float_put_desired_precision@N@std@@YAH_JH@Z	; std::_Float_put_desired_precision<double>
PUBLIC	??$isfinite@N@@YA_NN@Z				; isfinite<double>
PUBLIC	??$use_facet@V?$numpunct@_W@std@@@std@@YAAEBV?$numpunct@_W@0@AEBVlocale@0@@Z ; std::use_facet<std::numpunct<wchar_t> >
PUBLIC	?decimal_point@?$numpunct@_W@std@@QEBA_WXZ	; std::numpunct<wchar_t>::decimal_point
PUBLIC	?thousands_sep@?$numpunct@_W@std@@QEBA_WXZ	; std::numpunct<wchar_t>::thousands_sep
PUBLIC	?grouping@?$numpunct@_W@std@@QEBA?AV?$basic_string@DU?$char_traits@D@std@@V?$allocator@D@2@@2@XZ ; std::numpunct<wchar_t>::grouping
PUBLIC	?falsename@?$numpunct@_W@std@@QEBA?AV?$basic_string@_WU?$char_traits@_W@std@@V?$allocator@_W@2@@2@XZ ; std::numpunct<wchar_t>::falsename
PUBLIC	?truename@?$numpunct@_W@std@@QEBA?AV?$basic_string@_WU?$char_traits@_W@std@@V?$allocator@_W@2@@2@XZ ; std::numpunct<wchar_t>::truename
PUBLIC	??0?$numpunct@_W@std@@QEAA@AEBV_Locinfo@1@_K_N@Z ; std::numpunct<wchar_t>::numpunct<wchar_t>
PUBLIC	?_Getcat@?$numpunct@_W@std@@SA_KPEAPEBVfacet@locale@2@PEBV42@@Z ; std::numpunct<wchar_t>::_Getcat
PUBLIC	??1?$numpunct@_W@std@@MEAA@XZ			; std::numpunct<wchar_t>::~numpunct<wchar_t>
PUBLIC	?_Getvals@?$numpunct@_W@std@@IEAAX_WPEBUlconv@@U_Cvtvec@@@Z ; std::numpunct<wchar_t>::_Getvals
PUBLIC	?_Init@?$numpunct@_W@std@@IEAAXAEBV_Locinfo@2@_N@Z ; std::numpunct<wchar_t>::_Init
PUBLIC	?do_decimal_point@?$numpunct@_W@std@@MEBA_WXZ	; std::numpunct<wchar_t>::do_decimal_point
PUBLIC	?do_thousands_sep@?$numpunct@_W@std@@MEBA_WXZ	; std::numpunct<wchar_t>::do_thousands_sep
PUBLIC	?do_grouping@?$numpunct@_W@std@@MEBA?AV?$basic_string@DU?$char_traits@D@std@@V?$allocator@D@2@@2@XZ ; std::numpunct<wchar_t>::do_grouping
PUBLIC	?do_falsename@?$numpunct@_W@std@@MEBA?AV?$basic_string@_WU?$char_traits@_W@std@@V?$allocator@_W@2@@2@XZ ; std::numpunct<wchar_t>::do_falsename
PUBLIC	?do_truename@?$numpunct@_W@std@@MEBA?AV?$basic_string@_WU?$char_traits@_W@std@@V?$allocator@_W@2@@2@XZ ; std::numpunct<wchar_t>::do_truename
PUBLIC	?_Tidy@?$numpunct@_W@std@@AEAAXXZ		; std::numpunct<wchar_t>::_Tidy
PUBLIC	??_G?$numpunct@_W@std@@MEAAPEAXI@Z		; std::numpunct<wchar_t>::`scalar deleting destructor'
PUBLIC	??$move@AEAV?$basic_string@_WU?$char_traits@_W@std@@V?$allocator@_W@2@@std@@@std@@YA$$QEAV?$basic_string@_WU?$char_traits@_W@std@@V?$allocator@_W@2@@0@AEAV10@@Z ; std::move<std::basic_string<wchar_t,std::char_traits<wchar_t>,std::allocator<wchar_t> > &>
PUBLIC	??$addressof@_W@std@@YAPEA_WAEA_W@Z		; std::addressof<wchar_t>
PUBLIC	??$addressof@V?$_String_val@U?$_Simple_types@_W@std@@@std@@@std@@YAPEAV?$_String_val@U?$_Simple_types@_W@std@@@0@AEAV10@@Z ; std::addressof<std::_String_val<std::_Simple_types<wchar_t> > >
PUBLIC	??$_Construct_in_place@PEA_WAEAPEA_W@std@@YAXAEAPEA_W0@Z ; std::_Construct_in_place<wchar_t *,wchar_t * &>
PUBLIC	??$max@_K@std@@YAAEB_KAEB_K0@Z			; std::max<unsigned __int64>
PUBLIC	??$_Deallocate@$0BA@@std@@YAXPEAX_K@Z		; std::_Deallocate<16>
PUBLIC	??R<lambda_65e615be2a453ca0576c979606f46740>@@QEBA@QEADQEBD_K12@Z ; <lambda_65e615be2a453ca0576c979606f46740>::operator()
PUBLIC	??$_Reallocate_grow_by@V<lambda_65e615be2a453ca0576c979606f46740>@@PEBD_K@?$basic_string@DU?$char_traits@D@std@@V?$allocator@D@2@@std@@AEAAAEAV01@_KV<lambda_65e615be2a453ca0576c979606f46740>@@PEBD_K@Z ; std::basic_string<char,std::char_traits<char>,std::allocator<char> >::_Reallocate_grow_by<<lambda_65e615be2a453ca0576c979606f46740>,char const *,unsigned __int64>
PUBLIC	??$addressof@V?$_String_val@U?$_Simple_types@D@std@@@std@@@std@@YAPEAV?$_String_val@U?$_Simple_types@D@std@@@0@AEAV10@@Z ; std::addressof<std::_String_val<std::_Simple_types<char> > >
PUBLIC	??$_Construct_in_place@PEADAEAPEAD@std@@YAXAEAPEAD0@Z ; std::_Construct_in_place<char *,char * &>
PUBLIC	??$_Unfancy@D@std@@YAPEADPEAD@Z			; std::_Unfancy<char>
PUBLIC	??$use_facet@V?$ctype@_W@std@@@std@@YAAEBV?$ctype@_W@0@AEBVlocale@0@@Z ; std::use_facet<std::ctype<wchar_t> >
PUBLIC	??R<lambda_3fa8b2c8193a0f3144fc4b1b8f243931>@@QEBA@QEA_W_KQEB_W@Z ; <lambda_3fa8b2c8193a0f3144fc4b1b8f243931>::operator()
PUBLIC	??$_Reallocate_for@V<lambda_3fa8b2c8193a0f3144fc4b1b8f243931>@@PEB_W@?$basic_string@_WU?$char_traits@_W@std@@V?$allocator@_W@2@@std@@AEAAAEAV01@_KV<lambda_3fa8b2c8193a0f3144fc4b1b8f243931>@@PEB_W@Z ; std::basic_string<wchar_t,std::char_traits<wchar_t>,std::allocator<wchar_t> >::_Reallocate_for<<lambda_3fa8b2c8193a0f3144fc4b1b8f243931>,wchar_t const *>
PUBLIC	??R<lambda_1dfe18491bcca09701d8ccb01d0b0af4>@@QEBA@QEA_WQEB_W_K12@Z ; <lambda_1dfe18491bcca09701d8ccb01d0b0af4>::operator()
PUBLIC	??$_Reallocate_grow_by@V<lambda_1dfe18491bcca09701d8ccb01d0b0af4>@@PEB_W_K@?$basic_string@_WU?$char_traits@_W@std@@V?$allocator@_W@2@@std@@AEAAAEAV01@_KV<lambda_1dfe18491bcca09701d8ccb01d0b0af4>@@PEB_W_K@Z ; std::basic_string<wchar_t,std::char_traits<wchar_t>,std::allocator<wchar_t> >::_Reallocate_grow_by<<lambda_1dfe18491bcca09701d8ccb01d0b0af4>,wchar_t const *,unsigned __int64>
PUBLIC	??$?0AEBV?$allocator@_W@std@@$$V@?$_Compressed_pair@V?$allocator@_W@std@@V?$_String_val@U?$_Simple_types@_W@std@@@2@$00@std@@QEAA@U_One_then_variadic_args_t@1@AEBV?$allocator@_W@1@@Z ; std::_Compressed_pair<std::allocator<wchar_t>,std::_String_val<std::_Simple_types<wchar_t> >,1>::_Compressed_pair<std::allocator<wchar_t>,std::_String_val<std::_Simple_types<wchar_t> >,1><std::allocator<wchar_t> const &>
PUBLIC	??$_Destroy_in_place@PEA_W@std@@YAXAEAPEA_W@Z	; std::_Destroy_in_place<wchar_t *>
PUBLIC	??$_Destroy_in_place@PEAD@std@@YAXAEAPEAD@Z	; std::_Destroy_in_place<char *>
PUBLIC	??R<lambda_51c4cb9729979bd953fe6d1bff5c73b0>@@QEBA@QEA_WQEB_W_K22_W@Z ; <lambda_51c4cb9729979bd953fe6d1bff5c73b0>::operator()
PUBLIC	??$_Reallocate_grow_by@V<lambda_51c4cb9729979bd953fe6d1bff5c73b0>@@_K_K_W@?$basic_string@_WU?$char_traits@_W@std@@V?$allocator@_W@2@@std@@AEAAAEAV01@_KV<lambda_51c4cb9729979bd953fe6d1bff5c73b0>@@_K2_W@Z ; std::basic_string<wchar_t,std::char_traits<wchar_t>,std::allocator<wchar_t> >::_Reallocate_grow_by<<lambda_51c4cb9729979bd953fe6d1bff5c73b0>,unsigned __int64,unsigned __int64,wchar_t>
PUBLIC	??$addressof@V?$basic_string@_WU?$char_traits@_W@std@@V?$allocator@_W@2@@std@@@std@@YAPEAV?$basic_string@_WU?$char_traits@_W@std@@V?$allocator@_W@2@@0@AEAV10@@Z ; std::addressof<std::basic_string<wchar_t,std::char_traits<wchar_t>,std::allocator<wchar_t> > >
PUBLIC	??$_Pocma@V?$allocator@_W@std@@@std@@YAXAEAV?$allocator@_W@0@0@Z ; std::_Pocma<std::allocator<wchar_t> >
PUBLIC	??R<lambda_e1befb086ad3257e3f042a63030725f7>@@QEBA@QEADQEBD_K2D@Z ; <lambda_e1befb086ad3257e3f042a63030725f7>::operator()
PUBLIC	??$_Reallocate_grow_by@V<lambda_e1befb086ad3257e3f042a63030725f7>@@_KD@?$basic_string@DU?$char_traits@D@std@@V?$allocator@D@2@@std@@AEAAAEAV01@_KV<lambda_e1befb086ad3257e3f042a63030725f7>@@_KD@Z ; std::basic_string<char,std::char_traits<char>,std::allocator<char> >::_Reallocate_grow_by<<lambda_e1befb086ad3257e3f042a63030725f7>,unsigned __int64,char>
PUBLIC	??$end@_W$0BF@@std@@YAPEA_WAEAY0BF@_W@Z		; std::end<wchar_t,21>
PUBLIC	??$?0PEA_W$0A@@?$basic_string@_WU?$char_traits@_W@std@@V?$allocator@_W@2@@std@@QEAA@PEA_W0AEBV?$allocator@_W@1@@Z ; std::basic_string<wchar_t,std::char_traits<wchar_t>,std::allocator<wchar_t> >::basic_string<wchar_t,std::char_traits<wchar_t>,std::allocator<wchar_t> ><wchar_t *,0>
PUBLIC	??$_UIntegral_to_buff@_WK@std@@YAPEA_WPEA_WK@Z	; std::_UIntegral_to_buff<wchar_t,unsigned long>
PUBLIC	??$min@_K@std@@YAAEB_KAEB_K0@Z			; std::min<unsigned __int64>
PUBLIC	??R?$default_delete@V_Facet_base@std@@@std@@QEBAXPEAV_Facet_base@1@@Z ; std::default_delete<std::_Facet_base>::operator()
PUBLIC	??1?$unique_ptr@V_Facet_base@std@@U?$default_delete@V_Facet_base@std@@@2@@std@@QEAA@XZ ; std::unique_ptr<std::_Facet_base,std::default_delete<std::_Facet_base> >::~unique_ptr<std::_Facet_base,std::default_delete<std::_Facet_base> >
PUBLIC	?release@?$unique_ptr@V_Facet_base@std@@U?$default_delete@V_Facet_base@std@@@2@@std@@QEAAPEAV_Facet_base@2@XZ ; std::unique_ptr<std::_Facet_base,std::default_delete<std::_Facet_base> >::release
PUBLIC	?_Get_first@?$_Compressed_pair@U?$default_delete@V_Facet_base@std@@@std@@PEAV_Facet_base@2@$00@std@@QEAAAEAU?$default_delete@V_Facet_base@std@@@2@XZ ; std::_Compressed_pair<std::default_delete<std::_Facet_base>,std::_Facet_base *,1>::_Get_first
PUBLIC	??$?0U?$default_delete@V_Facet_base@std@@@std@@$0A@@?$unique_ptr@V_Facet_base@std@@U?$default_delete@V_Facet_base@std@@@2@@std@@QEAA@PEAV_Facet_base@1@@Z ; std::unique_ptr<std::_Facet_base,std::default_delete<std::_Facet_base> >::unique_ptr<std::_Facet_base,std::default_delete<std::_Facet_base> ><std::default_delete<std::_Facet_base>,0>
PUBLIC	??$forward@V?$allocator@_W@std@@@std@@YA$$QEAV?$allocator@_W@0@AEAV10@@Z ; std::forward<std::allocator<wchar_t> >
PUBLIC	??$_Allocate_for_capacity@$0A@@?$basic_string@_WU?$char_traits@_W@std@@V?$allocator@_W@2@@std@@CAPEA_WAEAV?$allocator@_W@1@AEA_K@Z ; std::basic_string<wchar_t,std::char_traits<wchar_t>,std::allocator<wchar_t> >::_Allocate_for_capacity<0>
PUBLIC	??$_Construct_in_place@PEA_WAEBQEA_W@std@@YAXAEAPEA_WAEBQEA_W@Z ; std::_Construct_in_place<wchar_t *,wchar_t * const &>
PUBLIC	??$forward@V?$allocator@D@std@@@std@@YA$$QEAV?$allocator@D@0@AEAV10@@Z ; std::forward<std::allocator<char> >
PUBLIC	??$_Allocate_for_capacity@$0A@@?$basic_string@DU?$char_traits@D@std@@V?$allocator@D@2@@std@@CAPEADAEAV?$allocator@D@1@AEA_K@Z ; std::basic_string<char,std::char_traits<char>,std::allocator<char> >::_Allocate_for_capacity<0>
PUBLIC	??$_Construct_in_place@PEADAEBQEAD@std@@YAXAEAPEADAEBQEAD@Z ; std::_Construct_in_place<char *,char * const &>
PUBLIC	??$addressof@PEA_W@std@@YAPEAPEA_WAEAPEA_W@Z	; std::addressof<wchar_t *>
PUBLIC	??$forward@AEAPEA_W@std@@YAAEAPEA_WAEAPEA_W@Z	; std::forward<wchar_t * &>
PUBLIC	??$addressof@PEAD@std@@YAPEAPEADAEAPEAD@Z	; std::addressof<char *>
PUBLIC	??$forward@AEAPEAD@std@@YAAEAPEADAEAPEAD@Z	; std::forward<char * &>
PUBLIC	??$forward@AEBV?$allocator@_W@std@@@std@@YAAEBV?$allocator@_W@0@AEBV10@@Z ; std::forward<std::allocator<wchar_t> const &>
PUBLIC	??$exchange@PEAV_Facet_base@std@@$$T@std@@YAPEAV_Facet_base@0@AEAPEAV10@$$QEA$$T@Z ; std::exchange<std::_Facet_base *,std::nullptr_t>
PUBLIC	??$_Max_limit@_J@std@@YA_JXZ			; std::_Max_limit<__int64>
PUBLIC	??$_Get_size_of_n@$01@std@@YA_K_K@Z		; std::_Get_size_of_n<2>
PUBLIC	??$_Allocate@$0BA@U_Default_allocate_traits@std@@@std@@YAPEAX_K@Z ; std::_Allocate<16,std::_Default_allocate_traits>
PUBLIC	??1?$_Tidy_guard@V?$numpunct@_W@std@@@std@@QEAA@XZ ; std::_Tidy_guard<std::numpunct<wchar_t> >::~_Tidy_guard<std::numpunct<wchar_t> >
PUBLIC	??$_Maklocstr@D@std@@YAPEADPEBDPEADAEBU_Cvtvec@@@Z ; std::_Maklocstr<char>
PUBLIC	??$_Get_unwrapped@AEAPEA_W@std@@YA?A_TAEAPEA_W@Z ; std::_Get_unwrapped<wchar_t * &>
PUBLIC	??$_Construct@$00PEA_W@?$basic_string@_WU?$char_traits@_W@std@@V?$allocator@_W@2@@std@@AEAAXQEA_W_K@Z ; std::basic_string<wchar_t,std::char_traits<wchar_t>,std::allocator<wchar_t> >::_Construct<1,wchar_t *>
PUBLIC	??$?0AEAPEAV_Facet_base@std@@@?$_Compressed_pair@U?$default_delete@V_Facet_base@std@@@std@@PEAV_Facet_base@2@$00@std@@QEAA@U_Zero_then_variadic_args_t@1@AEAPEAV_Facet_base@1@@Z ; std::_Compressed_pair<std::default_delete<std::_Facet_base>,std::_Facet_base *,1>::_Compressed_pair<std::default_delete<std::_Facet_base>,std::_Facet_base *,1><std::_Facet_base * &>
PUBLIC	??$forward@AEBQEA_W@std@@YAAEBQEA_WAEBQEA_W@Z	; std::forward<wchar_t * const &>
PUBLIC	??$_Allocate_at_least_helper@V?$allocator@D@std@@@std@@YAPEADAEAV?$allocator@D@0@AEA_K@Z ; std::_Allocate_at_least_helper<std::allocator<char> >
PUBLIC	??$forward@AEBQEAD@std@@YAAEBQEADAEBQEAD@Z	; std::forward<char * const &>
PUBLIC	??$_Allocate_manually_vector_aligned@U_Default_allocate_traits@std@@@std@@YAPEAX_K@Z ; std::_Allocate_manually_vector_aligned<std::_Default_allocate_traits>
PUBLIC	??$forward@AEAPEAV_Facet_base@std@@@std@@YAAEAPEAV_Facet_base@0@AEAPEAV10@@Z ; std::forward<std::_Facet_base * &>
PUBLIC	??$_Get_size_of_n@$00@std@@YA_K_K@Z		; std::_Get_size_of_n<1>
PUBLIC	??_E?$basic_istream@_WU?$char_traits@_W@std@@@std@@$4PPPPPPPM@A@EAAPEAXI@Z ; std::basic_istream<wchar_t,std::char_traits<wchar_t> >::`vector deleting destructor'
PUBLIC	??_E?$basic_ostream@_WU?$char_traits@_W@std@@@std@@$4PPPPPPPM@A@EAAPEAXI@Z ; std::basic_ostream<wchar_t,std::char_traits<wchar_t> >::`vector deleting destructor'
PUBLIC	??_E?$basic_iostream@_WU?$char_traits@_W@std@@@std@@$4PPPPPPPM@A@EAAPEAXI@Z ; std::basic_iostream<wchar_t,std::char_traits<wchar_t> >::`vector deleting destructor'
PUBLIC	??_E?$basic_stringstream@_WU?$char_traits@_W@std@@V?$allocator@_W@2@@std@@$4PPPPPPPM@A@EAAPEAXI@Z ; std::basic_stringstream<wchar_t,std::char_traits<wchar_t>,std::allocator<wchar_t> >::`vector deleting destructor'
PUBLIC	?_OptionsStorage@?1??__local_stdio_printf_options@@9@4_KA ; `__local_stdio_printf_options'::`2'::_OptionsStorage
PUBLIC	??_7exception@std@@6B@				; std::exception::`vftable'
PUBLIC	??_C@_0BC@EOODALEL@Unknown?5exception@		; `string'
PUBLIC	??_7bad_alloc@std@@6B@				; std::bad_alloc::`vftable'
PUBLIC	??_7bad_array_new_length@std@@6B@		; std::bad_array_new_length::`vftable'
PUBLIC	??_C@_0BF@KINCDENJ@bad?5array?5new?5length@	; `string'
PUBLIC	??_R0?AVexception@std@@@8			; std::exception `RTTI Type Descriptor'
PUBLIC	_CT??_R0?AVexception@std@@@8??0exception@std@@QEAA@AEBV01@@Z24
PUBLIC	_TI3?AVbad_array_new_length@std@@
PUBLIC	_CTA3?AVbad_array_new_length@std@@
PUBLIC	??_R0?AVbad_array_new_length@std@@@8		; std::bad_array_new_length `RTTI Type Descriptor'
PUBLIC	_CT??_R0?AVbad_array_new_length@std@@@8??0bad_array_new_length@std@@QEAA@AEBV01@@Z24
PUBLIC	??_R0?AVbad_alloc@std@@@8			; std::bad_alloc `RTTI Type Descriptor'
PUBLIC	_CT??_R0?AVbad_alloc@std@@@8??0bad_alloc@std@@QEAA@AEBV01@@Z24
PUBLIC	??_C@_0BA@JFNIOLAK@string?5too?5long@		; `string'
PUBLIC	??_7runtime_error@std@@6B@			; std::runtime_error::`vftable'
PUBLIC	??_R0?AVruntime_error@std@@@8			; std::runtime_error `RTTI Type Descriptor'
PUBLIC	_CT??_R0?AVruntime_error@std@@@8??0runtime_error@std@@QEAA@AEBV01@@Z24
PUBLIC	??_7_System_error@std@@6B@			; std::_System_error::`vftable'
PUBLIC	??_C@_02LMMGGCAJ@?3?5@				; `string'
PUBLIC	??_7system_error@std@@6B@			; std::system_error::`vftable'
PUBLIC	??_R0?AVsystem_error@std@@@8			; std::system_error `RTTI Type Descriptor'
PUBLIC	_CT??_R0?AVsystem_error@std@@@8??0system_error@std@@QEAA@AEBV01@@Z40
PUBLIC	??_R0?AV_System_error@std@@@8			; std::_System_error `RTTI Type Descriptor'
PUBLIC	_CT??_R0?AV_System_error@std@@@8??0_System_error@std@@QEAA@AEBV01@@Z40
PUBLIC	??_7_Iostream_error_category2@std@@6B@		; std::_Iostream_error_category2::`vftable'
PUBLIC	??_C@_08LLGCOLLL@iostream@			; `string'
PUBLIC	?_Iostream_error@?4??message@_Iostream_error_category2@std@@UEBA?AV?$basic_string@DU?$char_traits@D@std@@V?$allocator@D@2@@3@H@Z@4QBDB ; `std::_Iostream_error_category2::message'::`5'::_Iostream_error
PUBLIC	??_7bad_cast@std@@6B@				; std::bad_cast::`vftable'
PUBLIC	??_C@_08EPJLHIJG@bad?5cast@			; `string'
PUBLIC	_TI2?AVbad_cast@std@@
PUBLIC	_CTA2?AVbad_cast@std@@
PUBLIC	??_R0?AVbad_cast@std@@@8			; std::bad_cast `RTTI Type Descriptor'
PUBLIC	_CT??_R0?AVbad_cast@std@@@8??0bad_cast@std@@QEAA@AEBV01@@Z24
PUBLIC	??_7_Facet_base@std@@6B@			; std::_Facet_base::`vftable'
PUBLIC	??_C@_0BA@ELKIONDK@bad?5locale?5name@		; `string'
PUBLIC	??_C@_05LAPONLG@false@				; `string'
PUBLIC	??_C@_04LOAJBDKD@true@				; `string'
PUBLIC	??_7facet@locale@std@@6B@			; std::locale::facet::`vftable'
PUBLIC	??_C@_00CNPNBAHC@@				; `string'
PUBLIC	??_7ctype_base@std@@6B@				; std::ctype_base::`vftable'
PUBLIC	??_7?$ctype@_W@std@@6B@				; std::ctype<wchar_t>::`vftable'
PUBLIC	??_7failure@ios_base@std@@6B@			; std::ios_base::failure::`vftable'
PUBLIC	??_7ios_base@std@@6B@				; std::ios_base::`vftable'
PUBLIC	??_C@_0BF@PHHKMMFD@ios_base?3?3badbit?5set@	; `string'
PUBLIC	??_C@_0BG@FMKFHCIL@ios_base?3?3failbit?5set@	; `string'
PUBLIC	??_C@_0BF@OOHOMBOF@ios_base?3?3eofbit?5set@	; `string'
PUBLIC	_TI5?AVfailure@ios_base@std@@
PUBLIC	_CTA5?AVfailure@ios_base@std@@
PUBLIC	??_R0?AVfailure@ios_base@std@@@8		; std::ios_base::failure `RTTI Type Descriptor'
PUBLIC	_CT??_R0?AVfailure@ios_base@std@@@8??0failure@ios_base@std@@QEAA@AEBV012@@Z40
PUBLIC	??_7?$basic_ios@_WU?$char_traits@_W@std@@@std@@6B@ ; std::basic_ios<wchar_t,std::char_traits<wchar_t> >::`vftable'
PUBLIC	??_7?$basic_istream@_WU?$char_traits@_W@std@@@std@@6B@ ; std::basic_istream<wchar_t,std::char_traits<wchar_t> >::`vftable'
PUBLIC	??_8?$basic_istream@_WU?$char_traits@_W@std@@@std@@7B@ ; std::basic_istream<wchar_t,std::char_traits<wchar_t> >::`vbtable'
PUBLIC	??_7?$basic_ostream@_WU?$char_traits@_W@std@@@std@@6B@ ; std::basic_ostream<wchar_t,std::char_traits<wchar_t> >::`vftable'
PUBLIC	??_8?$basic_ostream@_WU?$char_traits@_W@std@@@std@@7B@ ; std::basic_ostream<wchar_t,std::char_traits<wchar_t> >::`vbtable'
PUBLIC	??_7?$basic_iostream@_WU?$char_traits@_W@std@@@std@@6B@ ; std::basic_iostream<wchar_t,std::char_traits<wchar_t> >::`vftable'
PUBLIC	??_8?$basic_iostream@_WU?$char_traits@_W@std@@@std@@7B?$basic_istream@_WU?$char_traits@_W@std@@@1@@ ; std::basic_iostream<wchar_t,std::char_traits<wchar_t> >::`vbtable'
PUBLIC	??_8?$basic_iostream@_WU?$char_traits@_W@std@@@std@@7B?$basic_ostream@_WU?$char_traits@_W@std@@@1@@ ; std::basic_iostream<wchar_t,std::char_traits<wchar_t> >::`vbtable'
PUBLIC	??_7?$basic_streambuf@_WU?$char_traits@_W@std@@@std@@6B@ ; std::basic_streambuf<wchar_t,std::char_traits<wchar_t> >::`vftable'
PUBLIC	??_7?$basic_stringbuf@_WU?$char_traits@_W@std@@V?$allocator@_W@2@@std@@6B@ ; std::basic_stringbuf<wchar_t,std::char_traits<wchar_t>,std::allocator<wchar_t> >::`vftable'
PUBLIC	??_7?$basic_stringstream@_WU?$char_traits@_W@std@@V?$allocator@_W@2@@std@@6B@ ; std::basic_stringstream<wchar_t,std::char_traits<wchar_t>,std::allocator<wchar_t> >::`vftable'
PUBLIC	??_8?$basic_stringstream@_WU?$char_traits@_W@std@@V?$allocator@_W@2@@std@@7B?$basic_istream@_WU?$char_traits@_W@std@@@1@@ ; std::basic_stringstream<wchar_t,std::char_traits<wchar_t>,std::allocator<wchar_t> >::`vbtable'
PUBLIC	??_8?$basic_stringstream@_WU?$char_traits@_W@std@@V?$allocator@_W@2@@std@@7B?$basic_ostream@_WU?$char_traits@_W@std@@@1@@ ; std::basic_stringstream<wchar_t,std::char_traits<wchar_t>,std::allocator<wchar_t> >::`vbtable'
PUBLIC	?id@?$num_put@_WV?$ostreambuf_iterator@_WU?$char_traits@_W@std@@@std@@@std@@2V0locale@2@A ; std::num_put<wchar_t,std::ostreambuf_iterator<wchar_t,std::char_traits<wchar_t> > >::id
PUBLIC	??_7?$num_put@_WV?$ostreambuf_iterator@_WU?$char_traits@_W@std@@@std@@@std@@6B@ ; std::num_put<wchar_t,std::ostreambuf_iterator<wchar_t,std::char_traits<wchar_t> > >::`vftable'
PUBLIC	??_C@_02BBAHNLBA@?$CFp@				; `string'
PUBLIC	??_C@_02CLHGNPPK@Lu@				; `string'
PUBLIC	??_C@_02HIKPPMOK@Ld@				; `string'
PUBLIC	??_C@_02BDDLJJBK@lu@				; `string'
PUBLIC	??_C@_02EAOCLKAK@ld@				; `string'
PUBLIC	?id@?$numpunct@_W@std@@2V0locale@2@A		; std::numpunct<wchar_t>::id
PUBLIC	??_7?$numpunct@_W@std@@6B@			; std::numpunct<wchar_t>::`vftable'
PUBLIC	??_C@_0BI@CFPLBAOH@invalid?5string?5position@	; `string'
PUBLIC	?_Static@?1???$_Immortalize_memcpy_image@V_Iostream_error_category2@std@@@std@@YAAEBV_Iostream_error_category2@1@XZ@4U?$_Constexpr_immortalize_impl@V_Iostream_error_category2@std@@@1@A ; `std::_Immortalize_memcpy_image<std::_Iostream_error_category2>'::`2'::_Static
PUBLIC	?_Psave@?$_Facetptr@V?$num_put@_WV?$ostreambuf_iterator@_WU?$char_traits@_W@std@@@std@@@std@@@std@@2PEBVfacet@locale@2@EB ; std::_Facetptr<std::num_put<wchar_t,std::ostreambuf_iterator<wchar_t,std::char_traits<wchar_t> > > >::_Psave
PUBLIC	??_C@_02MDKMJEGG@eE@				; `string'
PUBLIC	??_C@_02OOPEBDOJ@pP@				; `string'
PUBLIC	??_C@_01LFCBOECM@?4@				; `string'
PUBLIC	?_Psave@?$_Facetptr@V?$numpunct@_W@std@@@std@@2PEBVfacet@locale@2@EB ; std::_Facetptr<std::numpunct<wchar_t> >::_Psave
PUBLIC	?_Psave@?$_Facetptr@V?$ctype@_W@std@@@std@@2PEBVfacet@locale@2@EB ; std::_Facetptr<std::ctype<wchar_t> >::_Psave
PUBLIC	??_R4ios_base@std@@6B@				; std::ios_base::`RTTI Complete Object Locator'
PUBLIC	??_R0?AVios_base@std@@@8			; std::ios_base `RTTI Type Descriptor'
PUBLIC	??_R3ios_base@std@@8				; std::ios_base::`RTTI Class Hierarchy Descriptor'
PUBLIC	??_R2ios_base@std@@8				; std::ios_base::`RTTI Base Class Array'
PUBLIC	??_R1A@?0A@EA@ios_base@std@@8			; std::ios_base::`RTTI Base Class Descriptor at (0,-1,0,64)'
PUBLIC	??_R17?0A@EA@?$_Iosb@H@std@@8			; std::_Iosb<int>::`RTTI Base Class Descriptor at (8,-1,0,64)'
PUBLIC	??_R0?AV?$_Iosb@H@std@@@8			; std::_Iosb<int> `RTTI Type Descriptor'
PUBLIC	??_R3?$_Iosb@H@std@@8				; std::_Iosb<int>::`RTTI Class Hierarchy Descriptor'
PUBLIC	??_R2?$_Iosb@H@std@@8				; std::_Iosb<int>::`RTTI Base Class Array'
PUBLIC	??_R1A@?0A@EA@?$_Iosb@H@std@@8			; std::_Iosb<int>::`RTTI Base Class Descriptor at (0,-1,0,64)'
PUBLIC	??_R4?$basic_ios@_WU?$char_traits@_W@std@@@std@@6B@ ; std::basic_ios<wchar_t,std::char_traits<wchar_t> >::`RTTI Complete Object Locator'
PUBLIC	??_R0?AV?$basic_ios@_WU?$char_traits@_W@std@@@std@@@8 ; std::basic_ios<wchar_t,std::char_traits<wchar_t> > `RTTI Type Descriptor'
PUBLIC	??_R3?$basic_ios@_WU?$char_traits@_W@std@@@std@@8 ; std::basic_ios<wchar_t,std::char_traits<wchar_t> >::`RTTI Class Hierarchy Descriptor'
PUBLIC	??_R2?$basic_ios@_WU?$char_traits@_W@std@@@std@@8 ; std::basic_ios<wchar_t,std::char_traits<wchar_t> >::`RTTI Base Class Array'
PUBLIC	??_R1A@?0A@EA@?$basic_ios@_WU?$char_traits@_W@std@@@std@@8 ; std::basic_ios<wchar_t,std::char_traits<wchar_t> >::`RTTI Base Class Descriptor at (0,-1,0,64)'
PUBLIC	??_R4?$basic_streambuf@_WU?$char_traits@_W@std@@@std@@6B@ ; std::basic_streambuf<wchar_t,std::char_traits<wchar_t> >::`RTTI Complete Object Locator'
PUBLIC	??_R0?AV?$basic_streambuf@_WU?$char_traits@_W@std@@@std@@@8 ; std::basic_streambuf<wchar_t,std::char_traits<wchar_t> > `RTTI Type Descriptor'
PUBLIC	??_R3?$basic_streambuf@_WU?$char_traits@_W@std@@@std@@8 ; std::basic_streambuf<wchar_t,std::char_traits<wchar_t> >::`RTTI Class Hierarchy Descriptor'
PUBLIC	??_R2?$basic_streambuf@_WU?$char_traits@_W@std@@@std@@8 ; std::basic_streambuf<wchar_t,std::char_traits<wchar_t> >::`RTTI Base Class Array'
PUBLIC	??_R1A@?0A@EA@?$basic_streambuf@_WU?$char_traits@_W@std@@@std@@8 ; std::basic_streambuf<wchar_t,std::char_traits<wchar_t> >::`RTTI Base Class Descriptor at (0,-1,0,64)'
PUBLIC	??_R4?$basic_istream@_WU?$char_traits@_W@std@@@std@@6B@ ; std::basic_istream<wchar_t,std::char_traits<wchar_t> >::`RTTI Complete Object Locator'
PUBLIC	??_R0?AV?$basic_istream@_WU?$char_traits@_W@std@@@std@@@8 ; std::basic_istream<wchar_t,std::char_traits<wchar_t> > `RTTI Type Descriptor'
PUBLIC	??_R3?$basic_istream@_WU?$char_traits@_W@std@@@std@@8 ; std::basic_istream<wchar_t,std::char_traits<wchar_t> >::`RTTI Class Hierarchy Descriptor'
PUBLIC	??_R2?$basic_istream@_WU?$char_traits@_W@std@@@std@@8 ; std::basic_istream<wchar_t,std::char_traits<wchar_t> >::`RTTI Base Class Array'
PUBLIC	??_R1A@?0A@EA@?$basic_istream@_WU?$char_traits@_W@std@@@std@@8 ; std::basic_istream<wchar_t,std::char_traits<wchar_t> >::`RTTI Base Class Descriptor at (0,-1,0,64)'
PUBLIC	??_R1A@A@3FA@?$basic_ios@_WU?$char_traits@_W@std@@@std@@8 ; std::basic_ios<wchar_t,std::char_traits<wchar_t> >::`RTTI Base Class Descriptor at (0,0,4,80)'
PUBLIC	??_R1A@A@3EA@ios_base@std@@8			; std::ios_base::`RTTI Base Class Descriptor at (0,0,4,64)'
PUBLIC	??_R17A@3EA@?$_Iosb@H@std@@8			; std::_Iosb<int>::`RTTI Base Class Descriptor at (8,0,4,64)'
PUBLIC	??_R4?$basic_ostream@_WU?$char_traits@_W@std@@@std@@6B@ ; std::basic_ostream<wchar_t,std::char_traits<wchar_t> >::`RTTI Complete Object Locator'
PUBLIC	??_R0?AV?$basic_ostream@_WU?$char_traits@_W@std@@@std@@@8 ; std::basic_ostream<wchar_t,std::char_traits<wchar_t> > `RTTI Type Descriptor'
PUBLIC	??_R3?$basic_ostream@_WU?$char_traits@_W@std@@@std@@8 ; std::basic_ostream<wchar_t,std::char_traits<wchar_t> >::`RTTI Class Hierarchy Descriptor'
PUBLIC	??_R2?$basic_ostream@_WU?$char_traits@_W@std@@@std@@8 ; std::basic_ostream<wchar_t,std::char_traits<wchar_t> >::`RTTI Base Class Array'
PUBLIC	??_R1A@?0A@EA@?$basic_ostream@_WU?$char_traits@_W@std@@@std@@8 ; std::basic_ostream<wchar_t,std::char_traits<wchar_t> >::`RTTI Base Class Descriptor at (0,-1,0,64)'
PUBLIC	??_R4?$basic_iostream@_WU?$char_traits@_W@std@@@std@@6B@ ; std::basic_iostream<wchar_t,std::char_traits<wchar_t> >::`RTTI Complete Object Locator'
PUBLIC	??_R0?AV?$basic_iostream@_WU?$char_traits@_W@std@@@std@@@8 ; std::basic_iostream<wchar_t,std::char_traits<wchar_t> > `RTTI Type Descriptor'
PUBLIC	??_R3?$basic_iostream@_WU?$char_traits@_W@std@@@std@@8 ; std::basic_iostream<wchar_t,std::char_traits<wchar_t> >::`RTTI Class Hierarchy Descriptor'
PUBLIC	??_R2?$basic_iostream@_WU?$char_traits@_W@std@@@std@@8 ; std::basic_iostream<wchar_t,std::char_traits<wchar_t> >::`RTTI Base Class Array'
PUBLIC	??_R1A@?0A@EA@?$basic_iostream@_WU?$char_traits@_W@std@@@std@@8 ; std::basic_iostream<wchar_t,std::char_traits<wchar_t> >::`RTTI Base Class Descriptor at (0,-1,0,64)'
PUBLIC	??_R1BA@?0A@EA@?$basic_ostream@_WU?$char_traits@_W@std@@@std@@8 ; std::basic_ostream<wchar_t,std::char_traits<wchar_t> >::`RTTI Base Class Descriptor at (16,-1,0,64)'
PUBLIC	??_R4?$basic_stringbuf@_WU?$char_traits@_W@std@@V?$allocator@_W@2@@std@@6B@ ; std::basic_stringbuf<wchar_t,std::char_traits<wchar_t>,std::allocator<wchar_t> >::`RTTI Complete Object Locator'
PUBLIC	??_R0?AV?$basic_stringbuf@_WU?$char_traits@_W@std@@V?$allocator@_W@2@@std@@@8 ; std::basic_stringbuf<wchar_t,std::char_traits<wchar_t>,std::allocator<wchar_t> > `RTTI Type Descriptor'
PUBLIC	??_R3?$basic_stringbuf@_WU?$char_traits@_W@std@@V?$allocator@_W@2@@std@@8 ; std::basic_stringbuf<wchar_t,std::char_traits<wchar_t>,std::allocator<wchar_t> >::`RTTI Class Hierarchy Descriptor'
PUBLIC	??_R2?$basic_stringbuf@_WU?$char_traits@_W@std@@V?$allocator@_W@2@@std@@8 ; std::basic_stringbuf<wchar_t,std::char_traits<wchar_t>,std::allocator<wchar_t> >::`RTTI Base Class Array'
PUBLIC	??_R1A@?0A@EA@?$basic_stringbuf@_WU?$char_traits@_W@std@@V?$allocator@_W@2@@std@@8 ; std::basic_stringbuf<wchar_t,std::char_traits<wchar_t>,std::allocator<wchar_t> >::`RTTI Base Class Descriptor at (0,-1,0,64)'
PUBLIC	??_R4?$basic_stringstream@_WU?$char_traits@_W@std@@V?$allocator@_W@2@@std@@6B@ ; std::basic_stringstream<wchar_t,std::char_traits<wchar_t>,std::allocator<wchar_t> >::`RTTI Complete Object Locator'
PUBLIC	??_R0?AV?$basic_stringstream@_WU?$char_traits@_W@std@@V?$allocator@_W@2@@std@@@8 ; std::basic_stringstream<wchar_t,std::char_traits<wchar_t>,std::allocator<wchar_t> > `RTTI Type Descriptor'
PUBLIC	??_R3?$basic_stringstream@_WU?$char_traits@_W@std@@V?$allocator@_W@2@@std@@8 ; std::basic_stringstream<wchar_t,std::char_traits<wchar_t>,std::allocator<wchar_t> >::`RTTI Class Hierarchy Descriptor'
PUBLIC	??_R2?$basic_stringstream@_WU?$char_traits@_W@std@@V?$allocator@_W@2@@std@@8 ; std::basic_stringstream<wchar_t,std::char_traits<wchar_t>,std::allocator<wchar_t> >::`RTTI Base Class Array'
PUBLIC	??_R1A@?0A@EA@?$basic_stringstream@_WU?$char_traits@_W@std@@V?$allocator@_W@2@@std@@8 ; std::basic_stringstream<wchar_t,std::char_traits<wchar_t>,std::allocator<wchar_t> >::`RTTI Base Class Descriptor at (0,-1,0,64)'
PUBLIC	??_R4exception@std@@6B@				; std::exception::`RTTI Complete Object Locator'
PUBLIC	??_R3exception@std@@8				; std::exception::`RTTI Class Hierarchy Descriptor'
PUBLIC	??_R2exception@std@@8				; std::exception::`RTTI Base Class Array'
PUBLIC	??_R1A@?0A@EA@exception@std@@8			; std::exception::`RTTI Base Class Descriptor at (0,-1,0,64)'
PUBLIC	??_R4bad_array_new_length@std@@6B@		; std::bad_array_new_length::`RTTI Complete Object Locator'
PUBLIC	??_R3bad_array_new_length@std@@8		; std::bad_array_new_length::`RTTI Class Hierarchy Descriptor'
PUBLIC	??_R2bad_array_new_length@std@@8		; std::bad_array_new_length::`RTTI Base Class Array'
PUBLIC	??_R1A@?0A@EA@bad_array_new_length@std@@8	; std::bad_array_new_length::`RTTI Base Class Descriptor at (0,-1,0,64)'
PUBLIC	??_R1A@?0A@EA@bad_alloc@std@@8			; std::bad_alloc::`RTTI Base Class Descriptor at (0,-1,0,64)'
PUBLIC	??_R3bad_alloc@std@@8				; std::bad_alloc::`RTTI Class Hierarchy Descriptor'
PUBLIC	??_R2bad_alloc@std@@8				; std::bad_alloc::`RTTI Base Class Array'
PUBLIC	??_R4bad_alloc@std@@6B@				; std::bad_alloc::`RTTI Complete Object Locator'
PUBLIC	??_R4runtime_error@std@@6B@			; std::runtime_error::`RTTI Complete Object Locator'
PUBLIC	??_R3runtime_error@std@@8			; std::runtime_error::`RTTI Class Hierarchy Descriptor'
PUBLIC	??_R2runtime_error@std@@8			; std::runtime_error::`RTTI Base Class Array'
PUBLIC	??_R1A@?0A@EA@runtime_error@std@@8		; std::runtime_error::`RTTI Base Class Descriptor at (0,-1,0,64)'
PUBLIC	??_R0?AVerror_category@std@@@8			; std::error_category `RTTI Type Descriptor'
PUBLIC	??_R3error_category@std@@8			; std::error_category::`RTTI Class Hierarchy Descriptor'
PUBLIC	??_R2error_category@std@@8			; std::error_category::`RTTI Base Class Array'
PUBLIC	??_R1A@?0A@EA@error_category@std@@8		; std::error_category::`RTTI Base Class Descriptor at (0,-1,0,64)'
PUBLIC	??_R4_System_error@std@@6B@			; std::_System_error::`RTTI Complete Object Locator'
PUBLIC	??_R3_System_error@std@@8			; std::_System_error::`RTTI Class Hierarchy Descriptor'
PUBLIC	??_R2_System_error@std@@8			; std::_System_error::`RTTI Base Class Array'
PUBLIC	??_R1A@?0A@EA@_System_error@std@@8		; std::_System_error::`RTTI Base Class Descriptor at (0,-1,0,64)'
PUBLIC	??_R4system_error@std@@6B@			; std::system_error::`RTTI Complete Object Locator'
PUBLIC	??_R3system_error@std@@8			; std::system_error::`RTTI Class Hierarchy Descriptor'
PUBLIC	??_R2system_error@std@@8			; std::system_error::`RTTI Base Class Array'
PUBLIC	??_R1A@?0A@EA@system_error@std@@8		; std::system_error::`RTTI Base Class Descriptor at (0,-1,0,64)'
PUBLIC	??_R4_Iostream_error_category2@std@@6B@		; std::_Iostream_error_category2::`RTTI Complete Object Locator'
PUBLIC	??_R0?AV_Iostream_error_category2@std@@@8	; std::_Iostream_error_category2 `RTTI Type Descriptor'
PUBLIC	??_R3_Iostream_error_category2@std@@8		; std::_Iostream_error_category2::`RTTI Class Hierarchy Descriptor'
PUBLIC	??_R2_Iostream_error_category2@std@@8		; std::_Iostream_error_category2::`RTTI Base Class Array'
PUBLIC	??_R1A@?0A@EA@_Iostream_error_category2@std@@8	; std::_Iostream_error_category2::`RTTI Base Class Descriptor at (0,-1,0,64)'
PUBLIC	??_R4bad_cast@std@@6B@				; std::bad_cast::`RTTI Complete Object Locator'
PUBLIC	??_R3bad_cast@std@@8				; std::bad_cast::`RTTI Class Hierarchy Descriptor'
PUBLIC	??_R2bad_cast@std@@8				; std::bad_cast::`RTTI Base Class Array'
PUBLIC	??_R1A@?0A@EA@bad_cast@std@@8			; std::bad_cast::`RTTI Base Class Descriptor at (0,-1,0,64)'
PUBLIC	??_R4_Facet_base@std@@6B@			; std::_Facet_base::`RTTI Complete Object Locator'
PUBLIC	??_R0?AV_Facet_base@std@@@8			; std::_Facet_base `RTTI Type Descriptor'
PUBLIC	??_R3_Facet_base@std@@8				; std::_Facet_base::`RTTI Class Hierarchy Descriptor'
PUBLIC	??_R2_Facet_base@std@@8				; std::_Facet_base::`RTTI Base Class Array'
PUBLIC	??_R1A@?0A@EA@_Facet_base@std@@8		; std::_Facet_base::`RTTI Base Class Descriptor at (0,-1,0,64)'
PUBLIC	??_R4facet@locale@std@@6B@			; std::locale::facet::`RTTI Complete Object Locator'
PUBLIC	??_R0?AVfacet@locale@std@@@8			; std::locale::facet `RTTI Type Descriptor'
PUBLIC	??_R3facet@locale@std@@8			; std::locale::facet::`RTTI Class Hierarchy Descriptor'
PUBLIC	??_R2facet@locale@std@@8			; std::locale::facet::`RTTI Base Class Array'
PUBLIC	??_R1A@?0A@EA@facet@locale@std@@8		; std::locale::facet::`RTTI Base Class Descriptor at (0,-1,0,64)'
PUBLIC	??_R17?0A@EA@_Crt_new_delete@std@@8		; std::_Crt_new_delete::`RTTI Base Class Descriptor at (8,-1,0,64)'
PUBLIC	??_R0?AU_Crt_new_delete@std@@@8			; std::_Crt_new_delete `RTTI Type Descriptor'
PUBLIC	??_R3_Crt_new_delete@std@@8			; std::_Crt_new_delete::`RTTI Class Hierarchy Descriptor'
PUBLIC	??_R2_Crt_new_delete@std@@8			; std::_Crt_new_delete::`RTTI Base Class Array'
PUBLIC	??_R1A@?0A@EA@_Crt_new_delete@std@@8		; std::_Crt_new_delete::`RTTI Base Class Descriptor at (0,-1,0,64)'
PUBLIC	??_R4ctype_base@std@@6B@			; std::ctype_base::`RTTI Complete Object Locator'
PUBLIC	??_R0?AUctype_base@std@@@8			; std::ctype_base `RTTI Type Descriptor'
PUBLIC	??_R3ctype_base@std@@8				; std::ctype_base::`RTTI Class Hierarchy Descriptor'
PUBLIC	??_R2ctype_base@std@@8				; std::ctype_base::`RTTI Base Class Array'
PUBLIC	??_R1A@?0A@EA@ctype_base@std@@8			; std::ctype_base::`RTTI Base Class Descriptor at (0,-1,0,64)'
PUBLIC	??_R4?$ctype@_W@std@@6B@			; std::ctype<wchar_t>::`RTTI Complete Object Locator'
PUBLIC	??_R0?AV?$ctype@_W@std@@@8			; std::ctype<wchar_t> `RTTI Type Descriptor'
PUBLIC	??_R3?$ctype@_W@std@@8				; std::ctype<wchar_t>::`RTTI Class Hierarchy Descriptor'
PUBLIC	??_R2?$ctype@_W@std@@8				; std::ctype<wchar_t>::`RTTI Base Class Array'
PUBLIC	??_R1A@?0A@EA@?$ctype@_W@std@@8			; std::ctype<wchar_t>::`RTTI Base Class Descriptor at (0,-1,0,64)'
PUBLIC	??_R4failure@ios_base@std@@6B@			; std::ios_base::failure::`RTTI Complete Object Locator'
PUBLIC	??_R3failure@ios_base@std@@8			; std::ios_base::failure::`RTTI Class Hierarchy Descriptor'
PUBLIC	??_R2failure@ios_base@std@@8			; std::ios_base::failure::`RTTI Base Class Array'
PUBLIC	??_R1A@?0A@EA@failure@ios_base@std@@8		; std::ios_base::failure::`RTTI Base Class Descriptor at (0,-1,0,64)'
PUBLIC	??_R4?$num_put@_WV?$ostreambuf_iterator@_WU?$char_traits@_W@std@@@std@@@std@@6B@ ; std::num_put<wchar_t,std::ostreambuf_iterator<wchar_t,std::char_traits<wchar_t> > >::`RTTI Complete Object Locator'
PUBLIC	??_R0?AV?$num_put@_WV?$ostreambuf_iterator@_WU?$char_traits@_W@std@@@std@@@std@@@8 ; std::num_put<wchar_t,std::ostreambuf_iterator<wchar_t,std::char_traits<wchar_t> > > `RTTI Type Descriptor'
PUBLIC	??_R3?$num_put@_WV?$ostreambuf_iterator@_WU?$char_traits@_W@std@@@std@@@std@@8 ; std::num_put<wchar_t,std::ostreambuf_iterator<wchar_t,std::char_traits<wchar_t> > >::`RTTI Class Hierarchy Descriptor'
PUBLIC	??_R2?$num_put@_WV?$ostreambuf_iterator@_WU?$char_traits@_W@std@@@std@@@std@@8 ; std::num_put<wchar_t,std::ostreambuf_iterator<wchar_t,std::char_traits<wchar_t> > >::`RTTI Base Class Array'
PUBLIC	??_R1A@?0A@EA@?$num_put@_WV?$ostreambuf_iterator@_WU?$char_traits@_W@std@@@std@@@std@@8 ; std::num_put<wchar_t,std::ostreambuf_iterator<wchar_t,std::char_traits<wchar_t> > >::`RTTI Base Class Descriptor at (0,-1,0,64)'
PUBLIC	??_R4?$numpunct@_W@std@@6B@			; std::numpunct<wchar_t>::`RTTI Complete Object Locator'
PUBLIC	??_R0?AV?$numpunct@_W@std@@@8			; std::numpunct<wchar_t> `RTTI Type Descriptor'
PUBLIC	??_R3?$numpunct@_W@std@@8			; std::numpunct<wchar_t>::`RTTI Class Hierarchy Descriptor'
PUBLIC	??_R2?$numpunct@_W@std@@8			; std::numpunct<wchar_t>::`RTTI Base Class Array'
PUBLIC	??_R1A@?0A@EA@?$numpunct@_W@std@@8		; std::numpunct<wchar_t>::`RTTI Base Class Descriptor at (0,-1,0,64)'
PUBLIC	__real@4202a05f20000000
EXTRN	_purecall:PROC
EXTRN	??2@YAPEAX_K@Z:PROC				; operator new
EXTRN	??3@YAXPEAX_K@Z:PROC				; operator delete
EXTRN	_invalid_parameter_noinfo_noreturn:PROC
EXTRN	memcpy:PROC
EXTRN	memmove:PROC
EXTRN	memset:PROC
EXTRN	wcslen:PROC
EXTRN	strcspn:PROC
EXTRN	strlen:PROC
EXTRN	calloc:PROC
EXTRN	free:PROC
EXTRN	abs:PROC
EXTRN	??0_Lockit@std@@QEAA@H@Z:PROC			; std::_Lockit::_Lockit
EXTRN	??1_Lockit@std@@QEAA@XZ:PROC			; std::_Lockit::~_Lockit
EXTRN	__stdio_common_vsprintf_s:PROC
EXTRN	_dtest:PROC
EXTRN	_ldtest:PROC
EXTRN	fabs:PROC
EXTRN	frexp:PROC
EXTRN	?_Xbad_alloc@std@@YAXXZ:PROC			; std::_Xbad_alloc
EXTRN	?_Xlength_error@std@@YAXPEBD@Z:PROC		; std::_Xlength_error
EXTRN	?_Xout_of_range@std@@YAXPEBD@Z:PROC		; std::_Xout_of_range
EXTRN	?_Xruntime_error@std@@YAXPEBD@Z:PROC		; std::_Xruntime_error
EXTRN	?uncaught_exception@std@@YA_NXZ:PROC		; std::uncaught_exception
EXTRN	__std_exception_copy:PROC
EXTRN	__std_exception_destroy:PROC
EXTRN	??_Eexception@std@@UEAAPEAXI@Z:PROC		; std::exception::`vector deleting destructor'
EXTRN	??_Ebad_alloc@std@@UEAAPEAXI@Z:PROC		; std::bad_alloc::`vector deleting destructor'
EXTRN	??_Ebad_array_new_length@std@@UEAAPEAXI@Z:PROC	; std::bad_array_new_length::`vector deleting destructor'
EXTRN	??_Eruntime_error@std@@UEAAPEAXI@Z:PROC		; std::runtime_error::`vector deleting destructor'
EXTRN	??_E_System_error@std@@UEAAPEAXI@Z:PROC		; std::_System_error::`vector deleting destructor'
EXTRN	??_Esystem_error@std@@UEAAPEAXI@Z:PROC		; std::system_error::`vector deleting destructor'
EXTRN	?_Syserror_map@std@@YAPEBDH@Z:PROC		; std::_Syserror_map
EXTRN	??_E_Iostream_error_category2@std@@UEAAPEAXI@Z:PROC ; std::_Iostream_error_category2::`vector deleting destructor'
EXTRN	??_Ebad_cast@std@@UEAAPEAXI@Z:PROC		; std::bad_cast::`vector deleting destructor'
EXTRN	??_E_Facet_base@std@@UEAAPEAXI@Z:PROC		; std::_Facet_base::`vector deleting destructor'
EXTRN	?_Facet_Register@std@@YAXPEAV_Facet_base@1@@Z:PROC ; std::_Facet_Register
EXTRN	localeconv:PROC
EXTRN	_Getctype:PROC
EXTRN	_Getcvt:PROC
EXTRN	_Mbrtowc:PROC
EXTRN	_Wcrtomb:PROC
EXTRN	_Getwctype:PROC
EXTRN	_Getwctypes:PROC
EXTRN	_Towlower:PROC
EXTRN	_Towupper:PROC
EXTRN	?_Locinfo_ctor@_Locinfo@std@@SAXPEAV12@PEBD@Z:PROC ; std::_Locinfo::_Locinfo_ctor
EXTRN	?_Locinfo_dtor@_Locinfo@std@@SAXPEAV12@@Z:PROC	; std::_Locinfo::_Locinfo_dtor
EXTRN	??_Efacet@locale@std@@MEAAPEAXI@Z:PROC		; std::locale::facet::`vector deleting destructor'
EXTRN	?_Init@locale@std@@CAPEAV_Locimp@12@_N@Z:PROC	; std::locale::_Init
EXTRN	?_Getgloballocale@locale@std@@CAPEAV_Locimp@12@XZ:PROC ; std::locale::_Getgloballocale
EXTRN	??_Ectype_base@std@@UEAAPEAXI@Z:PROC		; std::ctype_base::`vector deleting destructor'
EXTRN	??_E?$ctype@_W@std@@MEAAPEAXI@Z:PROC		; std::ctype<wchar_t>::`vector deleting destructor'
EXTRN	??_Efailure@ios_base@std@@UEAAPEAXI@Z:PROC	; std::ios_base::failure::`vector deleting destructor'
EXTRN	?_Addstd@ios_base@std@@SAXPEAV12@@Z:PROC	; std::ios_base::_Addstd
EXTRN	?_Ios_base_dtor@ios_base@std@@CAXPEAV12@@Z:PROC	; std::ios_base::_Ios_base_dtor
EXTRN	??_Eios_base@std@@UEAAPEAXI@Z:PROC		; std::ios_base::`vector deleting destructor'
EXTRN	??_E?$basic_ios@_WU?$char_traits@_W@std@@@std@@UEAAPEAXI@Z:PROC ; std::basic_ios<wchar_t,std::char_traits<wchar_t> >::`vector deleting destructor'
EXTRN	??_E?$basic_istream@_WU?$char_traits@_W@std@@@std@@UEAAPEAXI@Z:PROC ; std::basic_istream<wchar_t,std::char_traits<wchar_t> >::`vector deleting destructor'
EXTRN	??_E?$basic_ostream@_WU?$char_traits@_W@std@@@std@@UEAAPEAXI@Z:PROC ; std::basic_ostream<wchar_t,std::char_traits<wchar_t> >::`vector deleting destructor'
EXTRN	??_E?$basic_iostream@_WU?$char_traits@_W@std@@@std@@UEAAPEAXI@Z:PROC ; std::basic_iostream<wchar_t,std::char_traits<wchar_t> >::`vector deleting destructor'
EXTRN	??_E?$basic_streambuf@_WU?$char_traits@_W@std@@@std@@UEAAPEAXI@Z:PROC ; std::basic_streambuf<wchar_t,std::char_traits<wchar_t> >::`vector deleting destructor'
EXTRN	??_E?$basic_stringbuf@_WU?$char_traits@_W@std@@V?$allocator@_W@2@@std@@UEAAPEAXI@Z:PROC ; std::basic_stringbuf<wchar_t,std::char_traits<wchar_t>,std::allocator<wchar_t> >::`vector deleting destructor'
EXTRN	??_E?$basic_stringstream@_WU?$char_traits@_W@std@@V?$allocator@_W@2@@std@@UEAAPEAXI@Z:PROC ; std::basic_stringstream<wchar_t,std::char_traits<wchar_t>,std::allocator<wchar_t> >::`vector deleting destructor'
EXTRN	??_E?$num_put@_WV?$ostreambuf_iterator@_WU?$char_traits@_W@std@@@std@@@std@@MEAAPEAXI@Z:PROC ; std::num_put<wchar_t,std::ostreambuf_iterator<wchar_t,std::char_traits<wchar_t> > >::`vector deleting destructor'
EXTRN	??_E?$numpunct@_W@std@@MEAAPEAXI@Z:PROC		; std::numpunct<wchar_t>::`vector deleting destructor'
EXTRN	_CxxThrowException:PROC
EXTRN	__CxxFrameHandler4:PROC
EXTRN	??_7type_info@@6B@:BYTE				; type_info::`vftable'
EXTRN	?_Id_cnt@id@locale@std@@0HA:DWORD		; std::locale::id::_Id_cnt
EXTRN	?id@?$ctype@_W@std@@2V0locale@2@A:QWORD		; std::ctype<wchar_t>::id
EXTRN	_fltused:DWORD
;	COMDAT ?_OptionsStorage@?1??__local_stdio_printf_options@@9@4_KA
_BSS	SEGMENT
?_OptionsStorage@?1??__local_stdio_printf_options@@9@4_KA DQ 01H DUP (?) ; `__local_stdio_printf_options'::`2'::_OptionsStorage
_BSS	ENDS
;	COMDAT ?id@?$num_put@_WV?$ostreambuf_iterator@_WU?$char_traits@_W@std@@@std@@@std@@2V0locale@2@A
_BSS	SEGMENT
?id@?$num_put@_WV?$ostreambuf_iterator@_WU?$char_traits@_W@std@@@std@@@std@@2V0locale@2@A DQ 01H DUP (?) ; std::num_put<wchar_t,std::ostreambuf_iterator<wchar_t,std::char_traits<wchar_t> > >::id
_BSS	ENDS
;	COMDAT ?id@?$numpunct@_W@std@@2V0locale@2@A
_BSS	SEGMENT
?id@?$numpunct@_W@std@@2V0locale@2@A DQ 01H DUP (?)	; std::numpunct<wchar_t>::id
_BSS	ENDS
;	COMDAT ?_Psave@?$_Facetptr@V?$num_put@_WV?$ostreambuf_iterator@_WU?$char_traits@_W@std@@@std@@@std@@@std@@2PEBVfacet@locale@2@EB
_BSS	SEGMENT
?_Psave@?$_Facetptr@V?$num_put@_WV?$ostreambuf_iterator@_WU?$char_traits@_W@std@@@std@@@std@@@std@@2PEBVfacet@locale@2@EB DQ 01H DUP (?) ; std::_Facetptr<std::num_put<wchar_t,std::ostreambuf_iterator<wchar_t,std::char_traits<wchar_t> > > >::_Psave
_BSS	ENDS
;	COMDAT ?_Psave@?$_Facetptr@V?$numpunct@_W@std@@@std@@2PEBVfacet@locale@2@EB
_BSS	SEGMENT
?_Psave@?$_Facetptr@V?$numpunct@_W@std@@@std@@2PEBVfacet@locale@2@EB DQ 01H DUP (?) ; std::_Facetptr<std::numpunct<wchar_t> >::_Psave
_BSS	ENDS
;	COMDAT ?_Psave@?$_Facetptr@V?$ctype@_W@std@@@std@@2PEBVfacet@locale@2@EB
_BSS	SEGMENT
?_Psave@?$_Facetptr@V?$ctype@_W@std@@@std@@2PEBVfacet@locale@2@EB DQ 01H DUP (?) ; std::_Facetptr<std::ctype<wchar_t> >::_Psave
_BSS	ENDS
;	COMDAT pdata
pdata	SEGMENT
$pdata$?get_module_by_name@@YAPEAXPEA_W@Z DD imagerel $LN16
	DD	imagerel $LN16+567
	DD	imagerel $unwind$?get_module_by_name@@YAPEAXPEA_W@Z
pdata	ENDS
;	COMDAT pdata
pdata	SEGMENT
$pdata$?get_func_by_name@@YAPEAXPEAXPEAD@Z DD imagerel $LN13
	DD	imagerel $LN13+568
	DD	imagerel $unwind$?get_func_by_name@@YAPEAXPEAXPEAD@Z
pdata	ENDS
;	COMDAT pdata
pdata	SEGMENT
$pdata$_vsprintf_s_l DD imagerel $LN5
	DD	imagerel $LN5+110
	DD	imagerel $unwind$_vsprintf_s_l
pdata	ENDS
;	COMDAT pdata
pdata	SEGMENT
$pdata$sprintf_s DD imagerel $LN3
	DD	imagerel $LN3+89
	DD	imagerel $unwind$sprintf_s
pdata	ENDS
;	COMDAT pdata
pdata	SEGMENT
$pdata$wmemset DD imagerel $LN6
	DD	imagerel $LN6+87
	DD	imagerel $unwind$wmemset
pdata	ENDS
;	COMDAT pdata
pdata	SEGMENT
$pdata$?fpclassify@@YAHN@Z DD imagerel $LN3
	DD	imagerel $LN3+26
	DD	imagerel $unwind$?fpclassify@@YAHN@Z
pdata	ENDS
;	COMDAT pdata
pdata	SEGMENT
$pdata$?fpclassify@@YAHO@Z DD imagerel $LN3
	DD	imagerel $LN3+26
	DD	imagerel $unwind$?fpclassify@@YAHO@Z
pdata	ENDS
;	COMDAT pdata
pdata	SEGMENT
$pdata$fabsl DD	imagerel $LN3
	DD	imagerel $LN3+26
	DD	imagerel $unwind$fabsl
pdata	ENDS
;	COMDAT pdata
pdata	SEGMENT
$pdata$frexpl DD imagerel $LN3
	DD	imagerel $LN3+36
	DD	imagerel $unwind$frexpl
pdata	ENDS
;	COMDAT pdata
pdata	SEGMENT
$pdata$?copy@?$_Char_traits@_WG@std@@SAPEA_WQEA_WQEB_W_K@Z DD imagerel $LN3
	DD	imagerel $LN3+55
	DD	imagerel $unwind$?copy@?$_Char_traits@_WG@std@@SAPEA_WQEA_WQEB_W_K@Z
pdata	ENDS
;	COMDAT pdata
pdata	SEGMENT
$pdata$?move@?$_Char_traits@_WG@std@@SAPEA_WQEA_WQEB_W_K@Z DD imagerel $LN3
	DD	imagerel $LN3+55
	DD	imagerel $unwind$?move@?$_Char_traits@_WG@std@@SAPEA_WQEA_WQEB_W_K@Z
pdata	ENDS
;	COMDAT pdata
pdata	SEGMENT
$pdata$?length@?$_WChar_traits@_W@std@@SA_KPEB_W@Z DD imagerel $LN3
	DD	imagerel $LN3+24
	DD	imagerel $unwind$?length@?$_WChar_traits@_W@std@@SA_KPEB_W@Z
pdata	ENDS
;	COMDAT pdata
pdata	SEGMENT
$pdata$?assign@?$_WChar_traits@_W@std@@SAPEA_WQEA_W_K_W@Z DD imagerel $LN3
	DD	imagerel $LN3+45
	DD	imagerel $unwind$?assign@?$_WChar_traits@_W@std@@SAPEA_WQEA_W_K_W@Z
pdata	ENDS
;	COMDAT pdata
pdata	SEGMENT
$pdata$?eq@?$_WChar_traits@_W@std@@SA_N_W0@Z DD imagerel $LN5
	DD	imagerel $LN5+53
	DD	imagerel $unwind$?eq@?$_WChar_traits@_W@std@@SA_N_W0@Z
pdata	ENDS
;	COMDAT pdata
pdata	SEGMENT
$pdata$?eq_int_type@?$_WChar_traits@_W@std@@SA_NGG@Z DD imagerel $LN5
	DD	imagerel $LN5+53
	DD	imagerel $unwind$?eq_int_type@?$_WChar_traits@_W@std@@SA_NGG@Z
pdata	ENDS
;	COMDAT pdata
pdata	SEGMENT
$pdata$?not_eof@?$_WChar_traits@_W@std@@SAGG@Z DD imagerel $LN7
	DD	imagerel $LN7+97
	DD	imagerel $unwind$?not_eof@?$_WChar_traits@_W@std@@SAGG@Z
pdata	ENDS
;	COMDAT pdata
pdata	SEGMENT
$pdata$?copy@?$_Char_traits@DH@std@@SAPEADQEADQEBD_K@Z DD imagerel $LN3
	DD	imagerel $LN3+49
	DD	imagerel $unwind$?copy@?$_Char_traits@DH@std@@SAPEADQEADQEBD_K@Z
pdata	ENDS
;	COMDAT pdata
pdata	SEGMENT
$pdata$?move@?$_Char_traits@DH@std@@SAPEADQEADQEBD_K@Z DD imagerel $LN3
	DD	imagerel $LN3+49
	DD	imagerel $unwind$?move@?$_Char_traits@DH@std@@SAPEADQEADQEBD_K@Z
pdata	ENDS
;	COMDAT pdata
pdata	SEGMENT
$pdata$?length@?$_Narrow_char_traits@DH@std@@SA_KQEBD@Z DD imagerel $LN3
	DD	imagerel $LN3+24
	DD	imagerel $unwind$?length@?$_Narrow_char_traits@DH@std@@SA_KQEBD@Z
pdata	ENDS
;	COMDAT pdata
pdata	SEGMENT
$pdata$?assign@?$_Narrow_char_traits@DH@std@@SAPEADQEAD_KD@Z DD imagerel $LN3
	DD	imagerel $LN3+46
	DD	imagerel $unwind$?assign@?$_Narrow_char_traits@DH@std@@SAPEADQEAD_KD@Z
pdata	ENDS
;	COMDAT pdata
pdata	SEGMENT
$pdata$??0exception@std@@QEAA@QEBD@Z DD imagerel $LN3
	DD	imagerel $LN3+100
	DD	imagerel $unwind$??0exception@std@@QEAA@QEBD@Z
pdata	ENDS
;	COMDAT pdata
pdata	SEGMENT
$pdata$??0exception@std@@QEAA@QEBDH@Z DD imagerel $LN3
	DD	imagerel $LN3+73
	DD	imagerel $unwind$??0exception@std@@QEAA@QEBDH@Z
pdata	ENDS
;	COMDAT pdata
pdata	SEGMENT
$pdata$??0exception@std@@QEAA@AEBV01@@Z DD imagerel $LN3
	DD	imagerel $LN3+89
	DD	imagerel $unwind$??0exception@std@@QEAA@AEBV01@@Z
pdata	ENDS
;	COMDAT pdata
pdata	SEGMENT
$pdata$??1exception@std@@UEAA@XZ DD imagerel $LN3
	DD	imagerel $LN3+47
	DD	imagerel $unwind$??1exception@std@@UEAA@XZ
pdata	ENDS
;	COMDAT pdata
pdata	SEGMENT
$pdata$?what@exception@std@@UEBAPEBDXZ DD imagerel $LN5
	DD	imagerel $LN5+56
	DD	imagerel $unwind$?what@exception@std@@UEBAPEBDXZ
pdata	ENDS
;	COMDAT pdata
pdata	SEGMENT
$pdata$??_Gexception@std@@UEAAPEAXI@Z DD imagerel $LN4
	DD	imagerel $LN4+60
	DD	imagerel $unwind$??_Gexception@std@@UEAAPEAXI@Z
pdata	ENDS
;	COMDAT pdata
pdata	SEGMENT
$pdata$??0bad_alloc@std@@AEAA@QEBD@Z DD imagerel $LN3
	DD	imagerel $LN3+60
	DD	imagerel $unwind$??0bad_alloc@std@@AEAA@QEBD@Z
pdata	ENDS
;	COMDAT pdata
pdata	SEGMENT
$pdata$??1bad_alloc@std@@UEAA@XZ DD imagerel $LN3
	DD	imagerel $LN3+25
	DD	imagerel $unwind$??1bad_alloc@std@@UEAA@XZ
pdata	ENDS
;	COMDAT pdata
pdata	SEGMENT
$pdata$??0bad_alloc@std@@QEAA@AEBV01@@Z DD imagerel $LN3
	DD	imagerel $LN3+54
	DD	imagerel $unwind$??0bad_alloc@std@@QEAA@AEBV01@@Z
pdata	ENDS
;	COMDAT pdata
pdata	SEGMENT
$pdata$??_Gbad_alloc@std@@UEAAPEAXI@Z DD imagerel $LN4
	DD	imagerel $LN4+60
	DD	imagerel $unwind$??_Gbad_alloc@std@@UEAAPEAXI@Z
pdata	ENDS
;	COMDAT pdata
pdata	SEGMENT
$pdata$??0bad_array_new_length@std@@QEAA@XZ DD imagerel $LN3
	DD	imagerel $LN3+51
	DD	imagerel $unwind$??0bad_array_new_length@std@@QEAA@XZ
pdata	ENDS
;	COMDAT pdata
pdata	SEGMENT
$pdata$??1bad_array_new_length@std@@UEAA@XZ DD imagerel $LN3
	DD	imagerel $LN3+25
	DD	imagerel $unwind$??1bad_array_new_length@std@@UEAA@XZ
pdata	ENDS
;	COMDAT pdata
pdata	SEGMENT
$pdata$??0bad_array_new_length@std@@QEAA@AEBV01@@Z DD imagerel $LN3
	DD	imagerel $LN3+54
	DD	imagerel $unwind$??0bad_array_new_length@std@@QEAA@AEBV01@@Z
pdata	ENDS
;	COMDAT pdata
pdata	SEGMENT
$pdata$??_Gbad_array_new_length@std@@UEAAPEAXI@Z DD imagerel $LN4
	DD	imagerel $LN4+60
	DD	imagerel $unwind$??_Gbad_array_new_length@std@@UEAAPEAXI@Z
pdata	ENDS
;	COMDAT pdata
pdata	SEGMENT
$pdata$?_Throw_bad_array_new_length@std@@YAXXZ DD imagerel $LN3
	DD	imagerel $LN3+37
	DD	imagerel $unwind$?_Throw_bad_array_new_length@std@@YAXXZ
pdata	ENDS
;	COMDAT pdata
pdata	SEGMENT
$pdata$?_Allocate@_Default_allocate_traits@std@@SAPEAX_K@Z DD imagerel $LN3
	DD	imagerel $LN3+24
	DD	imagerel $unwind$?_Allocate@_Default_allocate_traits@std@@SAPEAX_K@Z
pdata	ENDS
;	COMDAT pdata
pdata	SEGMENT
$pdata$?_Adjust_manually_vector_aligned@std@@YAXAEAPEAXAEA_K@Z DD imagerel $LN11
	DD	imagerel $LN11+154
	DD	imagerel $unwind$?_Adjust_manually_vector_aligned@std@@YAXAEAPEAXAEA_K@Z
pdata	ENDS
;	COMDAT pdata
pdata	SEGMENT
$pdata$?_Xlen_string@std@@YAXXZ DD imagerel $LN3
	DD	imagerel $LN3+22
	DD	imagerel $unwind$?_Xlen_string@std@@YAXXZ
pdata	ENDS
;	COMDAT pdata
pdata	SEGMENT
$pdata$?deallocate@?$allocator@D@std@@QEAAXQEAD_K@Z DD imagerel $LN3
	DD	imagerel $LN3+40
	DD	imagerel $unwind$?deallocate@?$allocator@D@std@@QEAAXQEAD_K@Z
pdata	ENDS
;	COMDAT pdata
pdata	SEGMENT
$pdata$?allocate@?$allocator@D@std@@QEAAPEAD_K@Z DD imagerel $LN3
	DD	imagerel $LN3+37
	DD	imagerel $unwind$?allocate@?$allocator@D@std@@QEAAPEAD_K@Z
pdata	ENDS
;	COMDAT pdata
pdata	SEGMENT
$pdata$??0?$_String_val@U?$_Simple_types@D@std@@@std@@QEAA@XZ DD imagerel $LN3
	DD	imagerel $LN3+58
	DD	imagerel $unwind$??0?$_String_val@U?$_Simple_types@D@std@@@std@@QEAA@XZ
pdata	ENDS
;	COMDAT pdata
pdata	SEGMENT
$pdata$?_Myptr@?$_String_val@U?$_Simple_types@D@std@@@std@@QEAAPEADXZ DD imagerel $LN4
	DD	imagerel $LN4+64
	DD	imagerel $unwind$?_Myptr@?$_String_val@U?$_Simple_types@D@std@@@std@@QEAAPEADXZ
pdata	ENDS
;	COMDAT pdata
pdata	SEGMENT
$pdata$?_Myptr@?$_String_val@U?$_Simple_types@D@std@@@std@@QEBAPEBDXZ DD imagerel $LN4
	DD	imagerel $LN4+64
	DD	imagerel $unwind$?_Myptr@?$_String_val@U?$_Simple_types@D@std@@@std@@QEBAPEBDXZ
pdata	ENDS
;	COMDAT pdata
pdata	SEGMENT
$pdata$?_Large_mode_engaged@?$_String_val@U?$_Simple_types@D@std@@@std@@QEBA_NXZ DD imagerel $LN5
	DD	imagerel $LN5+46
	DD	imagerel $unwind$?_Large_mode_engaged@?$_String_val@U?$_Simple_types@D@std@@@std@@QEBA_NXZ
pdata	ENDS
;	COMDAT pdata
pdata	SEGMENT
$pdata$??0_Bxty@?$_String_val@U?$_Simple_types@D@std@@@std@@QEAA@XZ DD imagerel $LN3
	DD	imagerel $LN3+32
	DD	imagerel $unwind$??0_Bxty@?$_String_val@U?$_Simple_types@D@std@@@std@@QEAA@XZ
pdata	ENDS
;	COMDAT pdata
pdata	SEGMENT
$pdata$?_Switch_to_buf@_Bxty@?$_String_val@U?$_Simple_types@D@std@@@std@@QEAAXXZ DD imagerel $LN3
	DD	imagerel $LN3+28
	DD	imagerel $unwind$?_Switch_to_buf@_Bxty@?$_String_val@U?$_Simple_types@D@std@@@std@@QEAAXXZ
pdata	ENDS
;	COMDAT pdata
pdata	SEGMENT
$pdata$??1?$_String_val@U?$_Simple_types@D@std@@@std@@QEAA@XZ DD imagerel $LN3
	DD	imagerel $LN3+28
	DD	imagerel $unwind$??1?$_String_val@U?$_Simple_types@D@std@@@std@@QEAA@XZ
pdata	ENDS
;	COMDAT pdata
pdata	SEGMENT
$pdata$??0?$basic_string@DU?$char_traits@D@std@@V?$allocator@D@2@@std@@QEAA@XZ DD imagerel $LN3
	DD	imagerel $LN3+49
	DD	imagerel $unwind$??0?$basic_string@DU?$char_traits@D@std@@V?$allocator@D@2@@std@@QEAA@XZ
pdata	ENDS
;	COMDAT pdata
pdata	SEGMENT
$pdata$??0?$basic_string@DU?$char_traits@D@std@@V?$allocator@D@2@@std@@QEAA@AEBV01@@Z DD imagerel $LN3
	DD	imagerel $LN3+102
	DD	imagerel $unwind$??0?$basic_string@DU?$char_traits@D@std@@V?$allocator@D@2@@std@@QEAA@AEBV01@@Z
pdata	ENDS
;	COMDAT pdata
pdata	SEGMENT
$pdata$??0?$basic_string@DU?$char_traits@D@std@@V?$allocator@D@2@@std@@QEAA@QEBD_K@Z DD imagerel $LN3
	DD	imagerel $LN3+69
	DD	imagerel $unwind$??0?$basic_string@DU?$char_traits@D@std@@V?$allocator@D@2@@std@@QEAA@QEBD_K@Z
pdata	ENDS
;	COMDAT pdata
pdata	SEGMENT
$pdata$??0?$basic_string@DU?$char_traits@D@std@@V?$allocator@D@2@@std@@QEAA@QEBD@Z DD imagerel $LN3
	DD	imagerel $LN3+80
	DD	imagerel $unwind$??0?$basic_string@DU?$char_traits@D@std@@V?$allocator@D@2@@std@@QEAA@QEBD@Z
pdata	ENDS
;	COMDAT pdata
pdata	SEGMENT
$pdata$?_Deallocate_for_capacity@?$basic_string@DU?$char_traits@D@std@@V?$allocator@D@2@@std@@CAXAEAV?$allocator@D@2@QEAD_K@Z DD imagerel $LN3
	DD	imagerel $LN3+51
	DD	imagerel $unwind$?_Deallocate_for_capacity@?$basic_string@DU?$char_traits@D@std@@V?$allocator@D@2@@std@@CAXAEAV?$allocator@D@2@QEAD_K@Z
pdata	ENDS
;	COMDAT pdata
pdata	SEGMENT
$pdata$?_Construct_empty@?$basic_string@DU?$char_traits@D@std@@V?$allocator@D@2@@std@@AEAAXXZ DD imagerel $LN3
	DD	imagerel $LN3+117
	DD	imagerel $unwind$?_Construct_empty@?$basic_string@DU?$char_traits@D@std@@V?$allocator@D@2@@std@@AEAAXXZ
pdata	ENDS
;	COMDAT pdata
pdata	SEGMENT
$pdata$??0?$basic_string@DU?$char_traits@D@std@@V?$allocator@D@2@@std@@QEAA@$$QEAV01@@Z DD imagerel $LN3
	DD	imagerel $LN3+97
	DD	imagerel $unwind$??0?$basic_string@DU?$char_traits@D@std@@V?$allocator@D@2@@std@@QEAA@$$QEAV01@@Z
pdata	ENDS
;	COMDAT pdata
pdata	SEGMENT
$pdata$?_Take_contents@?$basic_string@DU?$char_traits@D@std@@V?$allocator@D@2@@std@@AEAAXAEAV12@@Z DD imagerel $LN5
	DD	imagerel $LN5+411
	DD	imagerel $unwind$?_Take_contents@?$basic_string@DU?$char_traits@D@std@@V?$allocator@D@2@@std@@AEAAXAEAV12@@Z
pdata	ENDS
;	COMDAT pdata
pdata	SEGMENT
$pdata$??1?$basic_string@DU?$char_traits@D@std@@V?$allocator@D@2@@std@@QEAA@XZ DD imagerel $LN3
	DD	imagerel $LN3+39
	DD	imagerel $unwind$??1?$basic_string@DU?$char_traits@D@std@@V?$allocator@D@2@@std@@QEAA@XZ
pdata	ENDS
;	COMDAT pdata
pdata	SEGMENT
$pdata$?append@?$basic_string@DU?$char_traits@D@std@@V?$allocator@D@2@@std@@QEAAAEAV12@AEBV12@@Z DD imagerel $LN3
	DD	imagerel $LN3+54
	DD	imagerel $unwind$?append@?$basic_string@DU?$char_traits@D@std@@V?$allocator@D@2@@std@@QEAAAEAV12@AEBV12@@Z
pdata	ENDS
;	COMDAT pdata
pdata	SEGMENT
$pdata$?append@?$basic_string@DU?$char_traits@D@std@@V?$allocator@D@2@@std@@QEAAAEAV12@QEBD_K@Z DD imagerel $LN4
	DD	imagerel $LN4+252
	DD	imagerel $unwind$?append@?$basic_string@DU?$char_traits@D@std@@V?$allocator@D@2@@std@@QEAAAEAV12@QEBD_K@Z
pdata	ENDS
;	COMDAT pdata
pdata	SEGMENT
$pdata$?append@?$basic_string@DU?$char_traits@D@std@@V?$allocator@D@2@@std@@QEAAAEAV12@QEBD@Z DD imagerel $LN3
	DD	imagerel $LN3+55
	DD	imagerel $unwind$?append@?$basic_string@DU?$char_traits@D@std@@V?$allocator@D@2@@std@@QEAAAEAV12@QEBD@Z
pdata	ENDS
;	COMDAT pdata
pdata	SEGMENT
$pdata$?append@?$basic_string@DU?$char_traits@D@std@@V?$allocator@D@2@@std@@QEAAAEAV12@_KD@Z DD imagerel $LN4
	DD	imagerel $LN4+252
	DD	imagerel $unwind$?append@?$basic_string@DU?$char_traits@D@std@@V?$allocator@D@2@@std@@QEAAAEAV12@_KD@Z
pdata	ENDS
;	COMDAT pdata
pdata	SEGMENT
$pdata$??A?$basic_string@DU?$char_traits@D@std@@V?$allocator@D@2@@std@@QEAAAEAD_K@Z DD imagerel $LN3
	DD	imagerel $LN3+37
	DD	imagerel $unwind$??A?$basic_string@DU?$char_traits@D@std@@V?$allocator@D@2@@std@@QEAAAEAD_K@Z
pdata	ENDS
;	COMDAT pdata
pdata	SEGMENT
$pdata$??A?$basic_string@DU?$char_traits@D@std@@V?$allocator@D@2@@std@@QEBAAEBD_K@Z DD imagerel $LN3
	DD	imagerel $LN3+37
	DD	imagerel $unwind$??A?$basic_string@DU?$char_traits@D@std@@V?$allocator@D@2@@std@@QEBAAEBD_K@Z
pdata	ENDS
;	COMDAT pdata
pdata	SEGMENT
$pdata$?c_str@?$basic_string@DU?$char_traits@D@std@@V?$allocator@D@2@@std@@QEBAPEBDXZ DD imagerel $LN3
	DD	imagerel $LN3+27
	DD	imagerel $unwind$?c_str@?$basic_string@DU?$char_traits@D@std@@V?$allocator@D@2@@std@@QEBAPEBDXZ
pdata	ENDS
;	COMDAT pdata
pdata	SEGMENT
$pdata$?max_size@?$basic_string@DU?$char_traits@D@std@@V?$allocator@D@2@@std@@QEBA_KXZ DD imagerel $LN3
	DD	imagerel $LN3+110
	DD	imagerel $unwind$?max_size@?$basic_string@DU?$char_traits@D@std@@V?$allocator@D@2@@std@@QEBA_KXZ
pdata	ENDS
;	COMDAT pdata
pdata	SEGMENT
$pdata$?resize@?$basic_string@DU?$char_traits@D@std@@V?$allocator@D@2@@std@@QEAAX_KD@Z DD imagerel $LN5
	DD	imagerel $LN5+105
	DD	imagerel $unwind$?resize@?$basic_string@DU?$char_traits@D@std@@V?$allocator@D@2@@std@@QEAAX_KD@Z
pdata	ENDS
;	COMDAT pdata
pdata	SEGMENT
$pdata$?empty@?$basic_string@DU?$char_traits@D@std@@V?$allocator@D@2@@std@@QEBA_NXZ DD imagerel $LN5
	DD	imagerel $LN5+46
	DD	imagerel $unwind$?empty@?$basic_string@DU?$char_traits@D@std@@V?$allocator@D@2@@std@@QEBA_NXZ
pdata	ENDS
;	COMDAT pdata
pdata	SEGMENT
$pdata$?_Calculate_growth@?$basic_string@DU?$char_traits@D@std@@V?$allocator@D@2@@std@@CA_K_K00@Z DD imagerel $LN5
	DD	imagerel $LN5+146
	DD	imagerel $unwind$?_Calculate_growth@?$basic_string@DU?$char_traits@D@std@@V?$allocator@D@2@@std@@CA_K_K00@Z
pdata	ENDS
;	COMDAT pdata
pdata	SEGMENT
$pdata$?_Calculate_growth@?$basic_string@DU?$char_traits@D@std@@V?$allocator@D@2@@std@@AEBA_K_K@Z DD imagerel $LN3
	DD	imagerel $LN3+51
	DD	imagerel $unwind$?_Calculate_growth@?$basic_string@DU?$char_traits@D@std@@V?$allocator@D@2@@std@@AEBA_K_K@Z
pdata	ENDS
;	COMDAT pdata
pdata	SEGMENT
$pdata$?_Eos@?$basic_string@DU?$char_traits@D@std@@V?$allocator@D@2@@std@@AEAAX_K@Z DD imagerel $LN3
	DD	imagerel $LN3+70
	DD	imagerel $unwind$?_Eos@?$basic_string@DU?$char_traits@D@std@@V?$allocator@D@2@@std@@AEAAX_K@Z
pdata	ENDS
;	COMDAT pdata
pdata	SEGMENT
$pdata$?_Tidy_deallocate@?$basic_string@DU?$char_traits@D@std@@V?$allocator@D@2@@std@@AEAAXXZ DD imagerel $LN4
	DD	imagerel $LN4+173
	DD	imagerel $unwind$?_Tidy_deallocate@?$basic_string@DU?$char_traits@D@std@@V?$allocator@D@2@@std@@AEAAXXZ
pdata	ENDS
;	COMDAT pdata
pdata	SEGMENT
$pdata$?_Swap_proxy_and_iterators@?$basic_string@DU?$char_traits@D@std@@V?$allocator@D@2@@std@@AEAAXAEAV12@@Z DD imagerel $LN3
	DD	imagerel $LN3+38
	DD	imagerel $unwind$?_Swap_proxy_and_iterators@?$basic_string@DU?$char_traits@D@std@@V?$allocator@D@2@@std@@AEAAXAEAV12@@Z
pdata	ENDS
;	COMDAT pdata
pdata	SEGMENT
$pdata$?_Getal@?$basic_string@DU?$char_traits@D@std@@V?$allocator@D@2@@std@@AEAAAEAV?$allocator@D@2@XZ DD imagerel $LN3
	DD	imagerel $LN3+27
	DD	imagerel $unwind$?_Getal@?$basic_string@DU?$char_traits@D@std@@V?$allocator@D@2@@std@@AEAAAEAV?$allocator@D@2@XZ
pdata	ENDS
;	COMDAT pdata
pdata	SEGMENT
$pdata$?_Getal@?$basic_string@DU?$char_traits@D@std@@V?$allocator@D@2@@std@@AEBAAEBV?$allocator@D@2@XZ DD imagerel $LN3
	DD	imagerel $LN3+27
	DD	imagerel $unwind$?_Getal@?$basic_string@DU?$char_traits@D@std@@V?$allocator@D@2@@std@@AEBAAEBV?$allocator@D@2@XZ
pdata	ENDS
;	COMDAT pdata
pdata	SEGMENT
$pdata$??1?$_Compressed_pair@V?$allocator@D@std@@V?$_String_val@U?$_Simple_types@D@std@@@2@$00@std@@QEAA@XZ DD imagerel $LN3
	DD	imagerel $LN3+28
	DD	imagerel $unwind$??1?$_Compressed_pair@V?$allocator@D@std@@V?$_String_val@U?$_Simple_types@D@std@@@2@$00@std@@QEAA@XZ
pdata	ENDS
;	COMDAT pdata
pdata	SEGMENT
$pdata$?deallocate@?$allocator@_W@std@@QEAAXQEA_W_K@Z DD imagerel $LN3
	DD	imagerel $LN3+46
	DD	imagerel $unwind$?deallocate@?$allocator@_W@std@@QEAAXQEA_W_K@Z
pdata	ENDS
;	COMDAT pdata
pdata	SEGMENT
$pdata$?allocate@?$allocator@_W@std@@QEAAPEA_W_K@Z DD imagerel $LN3
	DD	imagerel $LN3+37
	DD	imagerel $unwind$?allocate@?$allocator@_W@std@@QEAAPEA_W_K@Z
pdata	ENDS
;	COMDAT pdata
pdata	SEGMENT
$pdata$??0?$_String_val@U?$_Simple_types@_W@std@@@std@@QEAA@XZ DD imagerel $LN3
	DD	imagerel $LN3+58
	DD	imagerel $unwind$??0?$_String_val@U?$_Simple_types@_W@std@@@std@@QEAA@XZ
pdata	ENDS
;	COMDAT pdata
pdata	SEGMENT
$pdata$?_Myptr@?$_String_val@U?$_Simple_types@_W@std@@@std@@QEAAPEA_WXZ DD imagerel $LN4
	DD	imagerel $LN4+64
	DD	imagerel $unwind$?_Myptr@?$_String_val@U?$_Simple_types@_W@std@@@std@@QEAAPEA_WXZ
pdata	ENDS
;	COMDAT pdata
pdata	SEGMENT
$pdata$?_Myptr@?$_String_val@U?$_Simple_types@_W@std@@@std@@QEBAPEB_WXZ DD imagerel $LN4
	DD	imagerel $LN4+64
	DD	imagerel $unwind$?_Myptr@?$_String_val@U?$_Simple_types@_W@std@@@std@@QEBAPEB_WXZ
pdata	ENDS
;	COMDAT pdata
pdata	SEGMENT
$pdata$?_Large_mode_engaged@?$_String_val@U?$_Simple_types@_W@std@@@std@@QEBA_NXZ DD imagerel $LN5
	DD	imagerel $LN5+46
	DD	imagerel $unwind$?_Large_mode_engaged@?$_String_val@U?$_Simple_types@_W@std@@@std@@QEBA_NXZ
pdata	ENDS
;	COMDAT pdata
pdata	SEGMENT
$pdata$?_Check_offset@?$_String_val@U?$_Simple_types@_W@std@@@std@@QEBAX_K@Z DD imagerel $LN4
	DD	imagerel $LN4+41
	DD	imagerel $unwind$?_Check_offset@?$_String_val@U?$_Simple_types@_W@std@@@std@@QEBAX_K@Z
pdata	ENDS
;	COMDAT pdata
pdata	SEGMENT
$pdata$?_Xran@?$_String_val@U?$_Simple_types@_W@std@@@std@@SAXXZ DD imagerel $LN3
	DD	imagerel $LN3+22
	DD	imagerel $unwind$?_Xran@?$_String_val@U?$_Simple_types@_W@std@@@std@@SAXXZ
pdata	ENDS
;	COMDAT pdata
pdata	SEGMENT
$pdata$??0_Bxty@?$_String_val@U?$_Simple_types@_W@std@@@std@@QEAA@XZ DD imagerel $LN3
	DD	imagerel $LN3+32
	DD	imagerel $unwind$??0_Bxty@?$_String_val@U?$_Simple_types@_W@std@@@std@@QEAA@XZ
pdata	ENDS
;	COMDAT pdata
pdata	SEGMENT
$pdata$?_Switch_to_buf@_Bxty@?$_String_val@U?$_Simple_types@_W@std@@@std@@QEAAXXZ DD imagerel $LN3
	DD	imagerel $LN3+28
	DD	imagerel $unwind$?_Switch_to_buf@_Bxty@?$_String_val@U?$_Simple_types@_W@std@@@std@@QEAAXXZ
pdata	ENDS
;	COMDAT pdata
pdata	SEGMENT
$pdata$??1?$_String_val@U?$_Simple_types@_W@std@@@std@@QEAA@XZ DD imagerel $LN3
	DD	imagerel $LN3+28
	DD	imagerel $unwind$??1?$_String_val@U?$_Simple_types@_W@std@@@std@@QEAA@XZ
pdata	ENDS
;	COMDAT pdata
pdata	SEGMENT
$pdata$??0?$basic_string@_WU?$char_traits@_W@std@@V?$allocator@_W@2@@std@@QEAA@XZ DD imagerel $LN3
	DD	imagerel $LN3+49
	DD	imagerel $unwind$??0?$basic_string@_WU?$char_traits@_W@std@@V?$allocator@_W@2@@std@@QEAA@XZ
pdata	ENDS
;	COMDAT pdata
pdata	SEGMENT
$pdata$??0?$basic_string@_WU?$char_traits@_W@std@@V?$allocator@_W@2@@std@@QEAA@AEBV?$allocator@_W@1@@Z DD imagerel $LN3
	DD	imagerel $LN3+59
	DD	imagerel $unwind$??0?$basic_string@_WU?$char_traits@_W@std@@V?$allocator@_W@2@@std@@QEAA@AEBV?$allocator@_W@1@@Z
pdata	ENDS
;	COMDAT pdata
pdata	SEGMENT
$pdata$??0?$basic_string@_WU?$char_traits@_W@std@@V?$allocator@_W@2@@std@@QEAA@QEB_W@Z DD imagerel $LN3
	DD	imagerel $LN3+80
	DD	imagerel $unwind$??0?$basic_string@_WU?$char_traits@_W@std@@V?$allocator@_W@2@@std@@QEAA@QEB_W@Z
pdata	ENDS
;	COMDAT pdata
pdata	SEGMENT
$pdata$??0?$basic_string@_WU?$char_traits@_W@std@@V?$allocator@_W@2@@std@@QEAA@_K_W@Z DD imagerel $LN3
	DD	imagerel $LN3+70
	DD	imagerel $unwind$??0?$basic_string@_WU?$char_traits@_W@std@@V?$allocator@_W@2@@std@@QEAA@_K_W@Z
pdata	ENDS
;	COMDAT pdata
pdata	SEGMENT
$pdata$?_Deallocate_for_capacity@?$basic_string@_WU?$char_traits@_W@std@@V?$allocator@_W@2@@std@@CAXAEAV?$allocator@_W@2@QEA_W_K@Z DD imagerel $LN3
	DD	imagerel $LN3+51
	DD	imagerel $unwind$?_Deallocate_for_capacity@?$basic_string@_WU?$char_traits@_W@std@@V?$allocator@_W@2@@std@@CAXAEAV?$allocator@_W@2@QEA_W_K@Z
pdata	ENDS
;	COMDAT pdata
pdata	SEGMENT
$pdata$?_Construct_empty@?$basic_string@_WU?$char_traits@_W@std@@V?$allocator@_W@2@@std@@AEAAXXZ DD imagerel $LN3
	DD	imagerel $LN3+119
	DD	imagerel $unwind$?_Construct_empty@?$basic_string@_WU?$char_traits@_W@std@@V?$allocator@_W@2@@std@@AEAAXXZ
pdata	ENDS
;	COMDAT pdata
pdata	SEGMENT
$pdata$??0?$basic_string@_WU?$char_traits@_W@std@@V?$allocator@_W@2@@std@@QEAA@$$QEAV01@@Z DD imagerel $LN3
	DD	imagerel $LN3+97
	DD	imagerel $unwind$??0?$basic_string@_WU?$char_traits@_W@std@@V?$allocator@_W@2@@std@@QEAA@$$QEAV01@@Z
pdata	ENDS
;	COMDAT pdata
pdata	SEGMENT
$pdata$??4?$basic_string@_WU?$char_traits@_W@std@@V?$allocator@_W@2@@std@@QEAAAEAV01@$$QEAV01@@Z DD imagerel $LN4
	DD	imagerel $LN4+126
	DD	imagerel $unwind$??4?$basic_string@_WU?$char_traits@_W@std@@V?$allocator@_W@2@@std@@QEAAAEAV01@$$QEAV01@@Z
pdata	ENDS
;	COMDAT pdata
pdata	SEGMENT
$pdata$?assign@?$basic_string@_WU?$char_traits@_W@std@@V?$allocator@_W@2@@std@@QEAAAEAV12@$$QEAV12@@Z DD imagerel $LN3
	DD	imagerel $LN3+47
	DD	imagerel $unwind$?assign@?$basic_string@_WU?$char_traits@_W@std@@V?$allocator@_W@2@@std@@QEAAAEAV12@$$QEAV12@@Z
pdata	ENDS
;	COMDAT pdata
pdata	SEGMENT
$pdata$?_Take_contents@?$basic_string@_WU?$char_traits@_W@std@@V?$allocator@_W@2@@std@@AEAAXAEAV12@@Z DD imagerel $LN5
	DD	imagerel $LN5+415
	DD	imagerel $unwind$?_Take_contents@?$basic_string@_WU?$char_traits@_W@std@@V?$allocator@_W@2@@std@@AEAAXAEAV12@@Z
pdata	ENDS
;	COMDAT pdata
pdata	SEGMENT
$pdata$??1?$basic_string@_WU?$char_traits@_W@std@@V?$allocator@_W@2@@std@@QEAA@XZ DD imagerel $LN3
	DD	imagerel $LN3+39
	DD	imagerel $unwind$??1?$basic_string@_WU?$char_traits@_W@std@@V?$allocator@_W@2@@std@@QEAA@XZ
pdata	ENDS
;	COMDAT pdata
pdata	SEGMENT
$pdata$??Y?$basic_string@_WU?$char_traits@_W@std@@V?$allocator@_W@2@@std@@QEAAAEAV01@AEBV01@@Z DD imagerel $LN3
	DD	imagerel $LN3+34
	DD	imagerel $unwind$??Y?$basic_string@_WU?$char_traits@_W@std@@V?$allocator@_W@2@@std@@QEAAAEAV01@AEBV01@@Z
pdata	ENDS
;	COMDAT pdata
pdata	SEGMENT
$pdata$?append@?$basic_string@_WU?$char_traits@_W@std@@V?$allocator@_W@2@@std@@QEAAAEAV12@AEBV12@@Z DD imagerel $LN3
	DD	imagerel $LN3+54
	DD	imagerel $unwind$?append@?$basic_string@_WU?$char_traits@_W@std@@V?$allocator@_W@2@@std@@QEAAAEAV12@AEBV12@@Z
pdata	ENDS
;	COMDAT pdata
pdata	SEGMENT
$pdata$?append@?$basic_string@_WU?$char_traits@_W@std@@V?$allocator@_W@2@@std@@QEAAAEAV12@QEB_W_K@Z DD imagerel $LN4
	DD	imagerel $LN4+250
	DD	imagerel $unwind$?append@?$basic_string@_WU?$char_traits@_W@std@@V?$allocator@_W@2@@std@@QEAAAEAV12@QEB_W_K@Z
pdata	ENDS
;	COMDAT pdata
pdata	SEGMENT
$pdata$?assign@?$basic_string@_WU?$char_traits@_W@std@@V?$allocator@_W@2@@std@@QEAAAEAV12@QEB_W_K@Z DD imagerel $LN4
	DD	imagerel $LN4+180
	DD	imagerel $unwind$?assign@?$basic_string@_WU?$char_traits@_W@std@@V?$allocator@_W@2@@std@@QEAAAEAV12@QEB_W_K@Z
pdata	ENDS
;	COMDAT pdata
pdata	SEGMENT
$pdata$?insert@?$basic_string@_WU?$char_traits@_W@std@@V?$allocator@_W@2@@std@@QEAAAEAV12@_K0_W@Z DD imagerel $LN4
	DD	imagerel $LN4+291
	DD	imagerel $unwind$?insert@?$basic_string@_WU?$char_traits@_W@std@@V?$allocator@_W@2@@std@@QEAAAEAV12@_K0_W@Z
pdata	ENDS
;	COMDAT pdata
pdata	SEGMENT
$pdata$??A?$basic_string@_WU?$char_traits@_W@std@@V?$allocator@_W@2@@std@@QEAAAEA_W_K@Z DD imagerel $LN3
	DD	imagerel $LN3+41
	DD	imagerel $unwind$??A?$basic_string@_WU?$char_traits@_W@std@@V?$allocator@_W@2@@std@@QEAAAEA_W_K@Z
pdata	ENDS
;	COMDAT pdata
pdata	SEGMENT
$pdata$?c_str@?$basic_string@_WU?$char_traits@_W@std@@V?$allocator@_W@2@@std@@QEBAPEB_WXZ DD imagerel $LN3
	DD	imagerel $LN3+27
	DD	imagerel $unwind$?c_str@?$basic_string@_WU?$char_traits@_W@std@@V?$allocator@_W@2@@std@@QEBAPEB_WXZ
pdata	ENDS
;	COMDAT pdata
pdata	SEGMENT
$pdata$?max_size@?$basic_string@_WU?$char_traits@_W@std@@V?$allocator@_W@2@@std@@QEBA_KXZ DD imagerel $LN3
	DD	imagerel $LN3+110
	DD	imagerel $unwind$?max_size@?$basic_string@_WU?$char_traits@_W@std@@V?$allocator@_W@2@@std@@QEBA_KXZ
pdata	ENDS
;	COMDAT pdata
pdata	SEGMENT
$pdata$?_Calculate_growth@?$basic_string@_WU?$char_traits@_W@std@@V?$allocator@_W@2@@std@@CA_K_K00@Z DD imagerel $LN5
	DD	imagerel $LN5+146
	DD	imagerel $unwind$?_Calculate_growth@?$basic_string@_WU?$char_traits@_W@std@@V?$allocator@_W@2@@std@@CA_K_K00@Z
pdata	ENDS
;	COMDAT pdata
pdata	SEGMENT
$pdata$?_Calculate_growth@?$basic_string@_WU?$char_traits@_W@std@@V?$allocator@_W@2@@std@@AEBA_K_K@Z DD imagerel $LN3
	DD	imagerel $LN3+51
	DD	imagerel $unwind$?_Calculate_growth@?$basic_string@_WU?$char_traits@_W@std@@V?$allocator@_W@2@@std@@AEBA_K_K@Z
pdata	ENDS
;	COMDAT pdata
pdata	SEGMENT
$pdata$?_Tidy_deallocate@?$basic_string@_WU?$char_traits@_W@std@@V?$allocator@_W@2@@std@@AEAAXXZ DD imagerel $LN4
	DD	imagerel $LN4+175
	DD	imagerel $unwind$?_Tidy_deallocate@?$basic_string@_WU?$char_traits@_W@std@@V?$allocator@_W@2@@std@@AEAAXXZ
pdata	ENDS
;	COMDAT pdata
pdata	SEGMENT
$pdata$?_Swap_proxy_and_iterators@?$basic_string@_WU?$char_traits@_W@std@@V?$allocator@_W@2@@std@@AEAAXAEAV12@@Z DD imagerel $LN3
	DD	imagerel $LN3+38
	DD	imagerel $unwind$?_Swap_proxy_and_iterators@?$basic_string@_WU?$char_traits@_W@std@@V?$allocator@_W@2@@std@@AEAAXAEAV12@@Z
pdata	ENDS
;	COMDAT pdata
pdata	SEGMENT
$pdata$?_Getal@?$basic_string@_WU?$char_traits@_W@std@@V?$allocator@_W@2@@std@@AEAAAEAV?$allocator@_W@2@XZ DD imagerel $LN3
	DD	imagerel $LN3+27
	DD	imagerel $unwind$?_Getal@?$basic_string@_WU?$char_traits@_W@std@@V?$allocator@_W@2@@std@@AEAAAEAV?$allocator@_W@2@XZ
pdata	ENDS
;	COMDAT pdata
pdata	SEGMENT
$pdata$?_Getal@?$basic_string@_WU?$char_traits@_W@std@@V?$allocator@_W@2@@std@@AEBAAEBV?$allocator@_W@2@XZ DD imagerel $LN3
	DD	imagerel $LN3+27
	DD	imagerel $unwind$?_Getal@?$basic_string@_WU?$char_traits@_W@std@@V?$allocator@_W@2@@std@@AEBAAEBV?$allocator@_W@2@XZ
pdata	ENDS
;	COMDAT pdata
pdata	SEGMENT
$pdata$??1?$_Compressed_pair@V?$allocator@_W@std@@V?$_String_val@U?$_Simple_types@_W@std@@@2@$00@std@@QEAA@XZ DD imagerel $LN3
	DD	imagerel $LN3+28
	DD	imagerel $unwind$??1?$_Compressed_pair@V?$allocator@_W@std@@V?$_String_val@U?$_Simple_types@_W@std@@@2@$00@std@@QEAA@XZ
pdata	ENDS
;	COMDAT pdata
pdata	SEGMENT
$pdata$?to_wstring@std@@YA?AV?$basic_string@_WU?$char_traits@_W@std@@V?$allocator@_W@2@@1@K@Z DD imagerel $LN3
	DD	imagerel $LN3+37
	DD	imagerel $unwind$?to_wstring@std@@YA?AV?$basic_string@_WU?$char_traits@_W@std@@V?$allocator@_W@2@@1@K@Z
pdata	ENDS
;	COMDAT pdata
pdata	SEGMENT
$pdata$??$_UIntegral_to_string@_WK@std@@YA?AV?$basic_string@_WU?$char_traits@_W@std@@V?$allocator@_W@2@@0@K@Z DD imagerel $LN3
	DD	imagerel $LN3+100
	DD	imagerel $unwind$??$_UIntegral_to_string@_WK@std@@YA?AV?$basic_string@_WU?$char_traits@_W@std@@V?$allocator@_W@2@@0@K@Z
pdata	ENDS
;	COMDAT pdata
pdata	SEGMENT
$pdata$??0runtime_error@std@@QEAA@AEBV?$basic_string@DU?$char_traits@D@std@@V?$allocator@D@2@@1@@Z DD imagerel $LN3
	DD	imagerel $LN3+62
	DD	imagerel $unwind$??0runtime_error@std@@QEAA@AEBV?$basic_string@DU?$char_traits@D@std@@V?$allocator@D@2@@1@@Z
pdata	ENDS
;	COMDAT pdata
pdata	SEGMENT
$pdata$??1runtime_error@std@@UEAA@XZ DD imagerel $LN3
	DD	imagerel $LN3+25
	DD	imagerel $unwind$??1runtime_error@std@@UEAA@XZ
pdata	ENDS
;	COMDAT pdata
pdata	SEGMENT
$pdata$??0runtime_error@std@@QEAA@AEBV01@@Z DD imagerel $LN3
	DD	imagerel $LN3+54
	DD	imagerel $unwind$??0runtime_error@std@@QEAA@AEBV01@@Z
pdata	ENDS
;	COMDAT pdata
pdata	SEGMENT
$pdata$??_Gruntime_error@std@@UEAAPEAXI@Z DD imagerel $LN4
	DD	imagerel $LN4+60
	DD	imagerel $unwind$??_Gruntime_error@std@@UEAAPEAXI@Z
pdata	ENDS
;	COMDAT pdata
pdata	SEGMENT
$pdata$?iostream_category@std@@YAAEBVerror_category@1@XZ DD imagerel $LN3
	DD	imagerel $LN3+14
	DD	imagerel $unwind$?iostream_category@std@@YAAEBVerror_category@1@XZ
pdata	ENDS
;	COMDAT pdata
pdata	SEGMENT
$pdata$?default_error_condition@error_category@std@@UEBA?AVerror_condition@2@H@Z DD imagerel $LN3
	DD	imagerel $LN3+48
	DD	imagerel $unwind$?default_error_condition@error_category@std@@UEBA?AVerror_condition@2@H@Z
pdata	ENDS
;	COMDAT pdata
pdata	SEGMENT
$pdata$?equivalent@error_category@std@@UEBA_NHAEBVerror_condition@2@@Z DD imagerel $LN3
	DD	imagerel $LN3+62
	DD	imagerel $unwind$?equivalent@error_category@std@@UEBA_NHAEBVerror_condition@2@@Z
pdata	ENDS
;	COMDAT pdata
pdata	SEGMENT
$pdata$?equivalent@error_category@std@@UEBA_NAEBVerror_code@2@H@Z DD imagerel $LN5
	DD	imagerel $LN5+93
	DD	imagerel $unwind$?equivalent@error_category@std@@UEBA_NAEBVerror_code@2@H@Z
pdata	ENDS
;	COMDAT pdata
pdata	SEGMENT
$pdata$??8error_category@std@@QEBA_NAEBV01@@Z DD imagerel $LN5
	DD	imagerel $LN5+88
	DD	imagerel $unwind$??8error_category@std@@QEBA_NAEBV01@@Z
pdata	ENDS
;	COMDAT pdata
pdata	SEGMENT
$pdata$??$_Bit_cast@_KT_Addr_storage@error_category@std@@$0A@@std@@YA_KAEBT_Addr_storage@error_category@0@@Z DD imagerel $LN3
	DD	imagerel $LN3+30
	DD	imagerel $unwind$??$_Bit_cast@_KT_Addr_storage@error_category@std@@$0A@@std@@YA_KAEBT_Addr_storage@error_category@0@@Z
pdata	ENDS
;	COMDAT pdata
pdata	SEGMENT
$pdata$?message@error_code@std@@QEBA?AV?$basic_string@DU?$char_traits@D@std@@V?$allocator@D@2@@2@XZ DD imagerel $LN3
	DD	imagerel $LN3+83
	DD	imagerel $unwind$?message@error_code@std@@QEBA?AV?$basic_string@DU?$char_traits@D@std@@V?$allocator@D@2@@2@XZ
pdata	ENDS
;	COMDAT pdata
pdata	SEGMENT
$pdata$??8std@@YA_NAEBVerror_condition@0@0@Z DD imagerel $LN5
	DD	imagerel $LN5+122
	DD	imagerel $unwind$??8std@@YA_NAEBVerror_condition@0@0@Z
pdata	ENDS
;	COMDAT pdata
pdata	SEGMENT
$pdata$?make_error_code@std@@YA?AVerror_code@1@W4io_errc@1@@Z DD imagerel $LN3
	DD	imagerel $LN3+45
	DD	imagerel $unwind$?make_error_code@std@@YA?AVerror_code@1@W4io_errc@1@@Z
pdata	ENDS
;	COMDAT pdata
pdata	SEGMENT
$pdata$?_Makestr@_System_error@std@@CA?AV?$basic_string@DU?$char_traits@D@std@@V?$allocator@D@2@@2@Verror_code@2@V32@@Z DD imagerel $LN4
	DD	imagerel $LN4+128
	DD	imagerel $unwind$?_Makestr@_System_error@std@@CA?AV?$basic_string@DU?$char_traits@D@std@@V?$allocator@D@2@@2@Verror_code@2@V32@@Z
pdata	ENDS
;	COMDAT pdata
pdata	SEGMENT
$pdata$??0_System_error@std@@IEAA@Verror_code@1@AEBV?$basic_string@DU?$char_traits@D@std@@V?$allocator@D@2@@1@@Z DD imagerel $LN3
	DD	imagerel $LN3+183
	DD	imagerel $unwind$??0_System_error@std@@IEAA@Verror_code@1@AEBV?$basic_string@DU?$char_traits@D@std@@V?$allocator@D@2@@1@@Z
pdata	ENDS
;	COMDAT pdata
pdata	SEGMENT
$pdata$??1_System_error@std@@UEAA@XZ DD imagerel $LN3
	DD	imagerel $LN3+25
	DD	imagerel $unwind$??1_System_error@std@@UEAA@XZ
pdata	ENDS
;	COMDAT pdata
pdata	SEGMENT
$pdata$??0_System_error@std@@QEAA@AEBV01@@Z DD imagerel $LN3
	DD	imagerel $LN3+83
	DD	imagerel $unwind$??0_System_error@std@@QEAA@AEBV01@@Z
pdata	ENDS
;	COMDAT pdata
pdata	SEGMENT
$pdata$??_G_System_error@std@@UEAAPEAXI@Z DD imagerel $LN4
	DD	imagerel $LN4+60
	DD	imagerel $unwind$??_G_System_error@std@@UEAAPEAXI@Z
pdata	ENDS
;	COMDAT pdata
pdata	SEGMENT
$pdata$??0system_error@std@@QEAA@Verror_code@1@PEBD@Z DD imagerel $LN3
	DD	imagerel $LN3+117
	DD	imagerel $unwind$??0system_error@std@@QEAA@Verror_code@1@PEBD@Z
pdata	ENDS
;	COMDAT pdata
pdata	SEGMENT
$pdata$??1system_error@std@@UEAA@XZ DD imagerel $LN3
	DD	imagerel $LN3+25
	DD	imagerel $unwind$??1system_error@std@@UEAA@XZ
pdata	ENDS
;	COMDAT pdata
pdata	SEGMENT
$pdata$??0system_error@std@@QEAA@AEBV01@@Z DD imagerel $LN3
	DD	imagerel $LN3+54
	DD	imagerel $unwind$??0system_error@std@@QEAA@AEBV01@@Z
pdata	ENDS
;	COMDAT pdata
pdata	SEGMENT
$pdata$??_Gsystem_error@std@@UEAAPEAXI@Z DD imagerel $LN4
	DD	imagerel $LN4+60
	DD	imagerel $unwind$??_Gsystem_error@std@@UEAAPEAXI@Z
pdata	ENDS
;	COMDAT pdata
pdata	SEGMENT
$pdata$?message@_Iostream_error_category2@std@@UEBA?AV?$basic_string@DU?$char_traits@D@std@@V?$allocator@D@2@@2@H@Z DD imagerel $LN5
	DD	imagerel $LN5+99
	DD	imagerel $unwind$?message@_Iostream_error_category2@std@@UEBA?AV?$basic_string@DU?$char_traits@D@std@@V?$allocator@D@2@@2@H@Z
pdata	ENDS
;	COMDAT pdata
pdata	SEGMENT
$pdata$??1_Iostream_error_category2@std@@UEAA@XZ DD imagerel $LN3
	DD	imagerel $LN3+25
	DD	imagerel $unwind$??1_Iostream_error_category2@std@@UEAA@XZ
pdata	ENDS
;	COMDAT pdata
pdata	SEGMENT
$pdata$??_G_Iostream_error_category2@std@@UEAAPEAXI@Z DD imagerel $LN4
	DD	imagerel $LN4+60
	DD	imagerel $unwind$??_G_Iostream_error_category2@std@@UEAAPEAXI@Z
pdata	ENDS
;	COMDAT pdata
pdata	SEGMENT
$pdata$??0bad_cast@std@@QEAA@XZ DD imagerel $LN3
	DD	imagerel $LN3+57
	DD	imagerel $unwind$??0bad_cast@std@@QEAA@XZ
pdata	ENDS
;	COMDAT pdata
pdata	SEGMENT
$pdata$??1bad_cast@std@@UEAA@XZ DD imagerel $LN3
	DD	imagerel $LN3+25
	DD	imagerel $unwind$??1bad_cast@std@@UEAA@XZ
pdata	ENDS
;	COMDAT pdata
pdata	SEGMENT
$pdata$??0bad_cast@std@@QEAA@AEBV01@@Z DD imagerel $LN3
	DD	imagerel $LN3+54
	DD	imagerel $unwind$??0bad_cast@std@@QEAA@AEBV01@@Z
pdata	ENDS
;	COMDAT pdata
pdata	SEGMENT
$pdata$??_Gbad_cast@std@@UEAAPEAXI@Z DD imagerel $LN4
	DD	imagerel $LN4+60
	DD	imagerel $unwind$??_Gbad_cast@std@@UEAAPEAXI@Z
pdata	ENDS
;	COMDAT pdata
pdata	SEGMENT
$pdata$?_Throw_bad_cast@std@@YAXXZ DD imagerel $LN3
	DD	imagerel $LN3+37
	DD	imagerel $unwind$?_Throw_bad_cast@std@@YAXXZ
pdata	ENDS
;	COMDAT pdata
pdata	SEGMENT
$pdata$??_G_Facet_base@std@@UEAAPEAXI@Z DD imagerel $LN4
	DD	imagerel $LN4+60
	DD	imagerel $unwind$??_G_Facet_base@std@@UEAAPEAXI@Z
pdata	ENDS
;	COMDAT pdata
pdata	SEGMENT
$pdata$??0_Locinfo@std@@QEAA@PEBD@Z DD imagerel $LN4
	DD	imagerel $LN4+181
	DD	imagerel $unwind$??0_Locinfo@std@@QEAA@PEBD@Z
pdata	ENDS
;	COMDAT pdata
pdata	SEGMENT
$pdata$??1_Locinfo@std@@QEAA@XZ DD imagerel $LN3
	DD	imagerel $LN3+141
	DD	imagerel $unwind$??1_Locinfo@std@@QEAA@XZ
pdata	ENDS
;	COMDAT pdata
pdata	SEGMENT
$pdata$?_Getctype@_Locinfo@std@@QEBA?AU_Ctypevec@@XZ DD imagerel $LN3
	DD	imagerel $LN3+82
	DD	imagerel $unwind$?_Getctype@_Locinfo@std@@QEBA?AU_Ctypevec@@XZ
pdata	ENDS
;	COMDAT pdata
pdata	SEGMENT
$pdata$?_Getcvt@_Locinfo@std@@QEBA?AU_Cvtvec@@XZ DD imagerel $LN3
	DD	imagerel $LN3+88
	DD	imagerel $unwind$?_Getcvt@_Locinfo@std@@QEBA?AU_Cvtvec@@XZ
pdata	ENDS
;	COMDAT pdata
pdata	SEGMENT
$pdata$?_Getlconv@_Locinfo@std@@QEBAPEBUlconv@@XZ DD imagerel $LN3
	DD	imagerel $LN3+19
	DD	imagerel $unwind$?_Getlconv@_Locinfo@std@@QEBAPEBUlconv@@XZ
pdata	ENDS
;	COMDAT pdata
pdata	SEGMENT
$pdata$??1?$_Yarn@D@std@@QEAA@XZ DD imagerel $LN3
	DD	imagerel $LN3+25
	DD	imagerel $unwind$??1?$_Yarn@D@std@@QEAA@XZ
pdata	ENDS
;	COMDAT pdata
pdata	SEGMENT
$pdata$?c_str@?$_Yarn@D@std@@QEBAPEBDXZ DD imagerel $LN5
	DD	imagerel $LN5+56
	DD	imagerel $unwind$?c_str@?$_Yarn@D@std@@QEBAPEBDXZ
pdata	ENDS
;	COMDAT pdata
pdata	SEGMENT
$pdata$?_Tidy@?$_Yarn@D@std@@AEAAXXZ DD imagerel $LN4
	DD	imagerel $LN4+51
	DD	imagerel $unwind$?_Tidy@?$_Yarn@D@std@@AEAAXXZ
pdata	ENDS
;	COMDAT pdata
pdata	SEGMENT
$pdata$??1?$_Yarn@_W@std@@QEAA@XZ DD imagerel $LN3
	DD	imagerel $LN3+25
	DD	imagerel $unwind$??1?$_Yarn@_W@std@@QEAA@XZ
pdata	ENDS
;	COMDAT pdata
pdata	SEGMENT
$pdata$?_Tidy@?$_Yarn@_W@std@@AEAAXXZ DD imagerel $LN4
	DD	imagerel $LN4+51
	DD	imagerel $unwind$?_Tidy@?$_Yarn@_W@std@@AEAAXXZ
pdata	ENDS
;	COMDAT pdata
pdata	SEGMENT
$pdata$??Bid@locale@std@@QEAA_KXZ DD imagerel $LN5
	DD	imagerel $LN5+97
	DD	imagerel $unwind$??Bid@locale@std@@QEAA_KXZ
pdata	ENDS
;	COMDAT pdata
pdata	SEGMENT
$pdata$??0facet@locale@std@@IEAA@_K@Z DD imagerel $LN3
	DD	imagerel $LN3+61
	DD	imagerel $unwind$??0facet@locale@std@@IEAA@_K@Z
pdata	ENDS
;	COMDAT pdata
pdata	SEGMENT
$pdata$??1facet@locale@std@@MEAA@XZ DD imagerel $LN3
	DD	imagerel $LN3+40
	DD	imagerel $unwind$??1facet@locale@std@@MEAA@XZ
pdata	ENDS
;	COMDAT pdata
pdata	SEGMENT
$pdata$??_Gfacet@locale@std@@MEAAPEAXI@Z DD imagerel $LN4
	DD	imagerel $LN4+60
	DD	imagerel $unwind$??_Gfacet@locale@std@@MEAAPEAXI@Z
pdata	ENDS
;	COMDAT pdata
pdata	SEGMENT
$pdata$??0locale@std@@QEAA@AEBV01@@Z DD imagerel $LN3
	DD	imagerel $LN3+67
	DD	imagerel $unwind$??0locale@std@@QEAA@AEBV01@@Z
pdata	ENDS
;	COMDAT pdata
pdata	SEGMENT
$pdata$??0locale@std@@QEAA@XZ DD imagerel $LN3
	DD	imagerel $LN3+35
	DD	imagerel $unwind$??0locale@std@@QEAA@XZ
pdata	ENDS
;	COMDAT pdata
pdata	SEGMENT
$pdata$??1locale@std@@QEAA@XZ DD imagerel $LN6
	DD	imagerel $LN6+99
	DD	imagerel $unwind$??1locale@std@@QEAA@XZ
pdata	ENDS
;	COMDAT pdata
pdata	SEGMENT
$pdata$?_C_str@locale@std@@QEBAPEBDXZ DD imagerel $LN5
	DD	imagerel $LN5+71
	DD	imagerel $unwind$?_C_str@locale@std@@QEBAPEBDXZ
pdata	ENDS
;	COMDAT pdata
pdata	SEGMENT
$pdata$?_Getfacet@locale@std@@QEBAPEBVfacet@12@_K@Z DD imagerel $LN8
	DD	imagerel $LN8+167
	DD	imagerel $unwind$?_Getfacet@locale@std@@QEBAPEBVfacet@12@_K@Z
pdata	ENDS
;	COMDAT pdata
pdata	SEGMENT
$pdata$??_Glocale@std@@QEAAPEAXI@Z DD imagerel $LN4
	DD	imagerel $LN4+60
	DD	imagerel $unwind$??_Glocale@std@@QEAAPEAXI@Z
pdata	ENDS
;	COMDAT pdata
pdata	SEGMENT
$pdata$??$_Maklocchr@_W@std@@YA_WDPEA_WAEBU_Cvtvec@@@Z DD imagerel $LN3
	DD	imagerel $LN3+90
	DD	imagerel $unwind$??$_Maklocchr@_W@std@@YA_WDPEA_WAEBU_Cvtvec@@@Z
pdata	ENDS
;	COMDAT pdata
pdata	SEGMENT
$pdata$??$_Maklocstr@_W@std@@YAPEA_WPEBDPEA_WAEBU_Cvtvec@@@Z DD imagerel $LN12
	DD	imagerel $LN12+453
	DD	imagerel $unwind$??$_Maklocstr@_W@std@@YAPEA_WPEBDPEA_WAEBU_Cvtvec@@@Z
pdata	ENDS
;	COMDAT pdata
pdata	SEGMENT
$pdata$??0ctype_base@std@@QEAA@_K@Z DD imagerel $LN3
	DD	imagerel $LN3+54
	DD	imagerel $unwind$??0ctype_base@std@@QEAA@_K@Z
pdata	ENDS
;	COMDAT pdata
pdata	SEGMENT
$pdata$??1ctype_base@std@@UEAA@XZ DD imagerel $LN3
	DD	imagerel $LN3+40
	DD	imagerel $unwind$??1ctype_base@std@@UEAA@XZ
pdata	ENDS
;	COMDAT pdata
pdata	SEGMENT
$pdata$??_Gctype_base@std@@UEAAPEAXI@Z DD imagerel $LN4
	DD	imagerel $LN4+60
	DD	imagerel $unwind$??_Gctype_base@std@@UEAAPEAXI@Z
pdata	ENDS
;	COMDAT pdata
pdata	SEGMENT
$pdata$?is@?$ctype@_W@std@@QEBA_NF_W@Z DD imagerel $LN3
	DD	imagerel $LN3+52
	DD	imagerel $unwind$?is@?$ctype@_W@std@@QEBA_NF_W@Z
pdata	ENDS
;	COMDAT pdata
pdata	SEGMENT
$pdata$?widen@?$ctype@_W@std@@QEBA_WD@Z DD imagerel $LN3
	DD	imagerel $LN3+39
	DD	imagerel $unwind$?widen@?$ctype@_W@std@@QEBA_WD@Z
pdata	ENDS
;	COMDAT pdata
pdata	SEGMENT
$pdata$?widen@?$ctype@_W@std@@QEBAPEBDPEBD0PEA_W@Z DD imagerel $LN3
	DD	imagerel $LN3+60
	DD	imagerel $unwind$?widen@?$ctype@_W@std@@QEBAPEBDPEBD0PEA_W@Z
pdata	ENDS
;	COMDAT pdata
pdata	SEGMENT
$pdata$??0?$ctype@_W@std@@QEAA@AEBV_Locinfo@1@_K@Z DD imagerel $LN3
	DD	imagerel $LN3+75
	DD	imagerel $unwind$??0?$ctype@_W@std@@QEAA@AEBV_Locinfo@1@_K@Z
pdata	ENDS
;	COMDAT pdata
pdata	SEGMENT
$pdata$?_Getcat@?$ctype@_W@std@@SA_KPEAPEBVfacet@locale@2@PEBV42@@Z DD imagerel $LN7
	DD	imagerel $LN7+200
	DD	imagerel $unwind$?_Getcat@?$ctype@_W@std@@SA_KPEAPEBVfacet@locale@2@PEBV42@@Z
pdata	ENDS
;	COMDAT pdata
pdata	SEGMENT
$pdata$??1?$ctype@_W@std@@MEAA@XZ DD imagerel $LN4
	DD	imagerel $LN4+81
	DD	imagerel $unwind$??1?$ctype@_W@std@@MEAA@XZ
pdata	ENDS
;	COMDAT pdata
pdata	SEGMENT
$pdata$?_Init@?$ctype@_W@std@@IEAAXAEBV_Locinfo@2@@Z DD imagerel $LN3
	DD	imagerel $LN3+103
	DD	imagerel $unwind$?_Init@?$ctype@_W@std@@IEAAXAEBV_Locinfo@2@@Z
pdata	ENDS
;	COMDAT pdata
pdata	SEGMENT
$pdata$?do_is@?$ctype@_W@std@@MEBA_NF_W@Z DD imagerel $LN5
	DD	imagerel $LN5+82
	DD	imagerel $unwind$?do_is@?$ctype@_W@std@@MEBA_NF_W@Z
pdata	ENDS
;	COMDAT pdata
pdata	SEGMENT
$pdata$?do_is@?$ctype@_W@std@@MEBAPEB_WPEB_W0PEAF@Z DD imagerel $LN3
	DD	imagerel $LN3+76
	DD	imagerel $unwind$?do_is@?$ctype@_W@std@@MEBAPEB_WPEB_W0PEAF@Z
pdata	ENDS
;	COMDAT pdata
pdata	SEGMENT
$pdata$?do_scan_is@?$ctype@_W@std@@MEBAPEB_WFPEB_W0@Z DD imagerel $LN5
	DD	imagerel $LN5+109
	DD	imagerel $unwind$?do_scan_is@?$ctype@_W@std@@MEBAPEB_WFPEB_W0@Z
pdata	ENDS
;	COMDAT pdata
pdata	SEGMENT
$pdata$?do_scan_not@?$ctype@_W@std@@MEBAPEB_WFPEB_W0@Z DD imagerel $LN5
	DD	imagerel $LN5+109
	DD	imagerel $unwind$?do_scan_not@?$ctype@_W@std@@MEBAPEB_WFPEB_W0@Z
pdata	ENDS
;	COMDAT pdata
pdata	SEGMENT
$pdata$?do_tolower@?$ctype@_W@std@@MEBA_W_W@Z DD imagerel $LN3
	DD	imagerel $LN3+41
	DD	imagerel $unwind$?do_tolower@?$ctype@_W@std@@MEBA_W_W@Z
pdata	ENDS
;	COMDAT pdata
pdata	SEGMENT
$pdata$?do_tolower@?$ctype@_W@std@@MEBAPEB_WPEA_WPEB_W@Z DD imagerel $LN6
	DD	imagerel $LN6+108
	DD	imagerel $unwind$?do_tolower@?$ctype@_W@std@@MEBAPEB_WPEA_WPEB_W@Z
pdata	ENDS
;	COMDAT pdata
pdata	SEGMENT
$pdata$?do_toupper@?$ctype@_W@std@@MEBA_W_W@Z DD imagerel $LN3
	DD	imagerel $LN3+41
	DD	imagerel $unwind$?do_toupper@?$ctype@_W@std@@MEBA_W_W@Z
pdata	ENDS
;	COMDAT pdata
pdata	SEGMENT
$pdata$?do_toupper@?$ctype@_W@std@@MEBAPEB_WPEA_WPEB_W@Z DD imagerel $LN6
	DD	imagerel $LN6+108
	DD	imagerel $unwind$?do_toupper@?$ctype@_W@std@@MEBAPEB_WPEA_WPEB_W@Z
pdata	ENDS
;	COMDAT pdata
pdata	SEGMENT
$pdata$?_Dowiden@?$ctype@_W@std@@IEBA_WD@Z DD imagerel $LN5
	DD	imagerel $LN5+108
	DD	imagerel $unwind$?_Dowiden@?$ctype@_W@std@@IEBA_WD@Z
pdata	ENDS
;	COMDAT pdata
pdata	SEGMENT
$pdata$?do_widen@?$ctype@_W@std@@MEBA_WD@Z DD imagerel $LN3
	DD	imagerel $LN3+33
	DD	imagerel $unwind$?do_widen@?$ctype@_W@std@@MEBA_WD@Z
pdata	ENDS
;	COMDAT pdata
pdata	SEGMENT
$pdata$?do_widen@?$ctype@_W@std@@MEBAPEBDPEBD0PEA_W@Z DD imagerel $LN6
	DD	imagerel $LN6+119
	DD	imagerel $unwind$?do_widen@?$ctype@_W@std@@MEBAPEBDPEBD0PEA_W@Z
pdata	ENDS
;	COMDAT pdata
pdata	SEGMENT
$pdata$?_Donarrow@?$ctype@_W@std@@IEBAD_WD@Z DD imagerel $LN5
	DD	imagerel $LN5+114
	DD	imagerel $unwind$?_Donarrow@?$ctype@_W@std@@IEBAD_WD@Z
pdata	ENDS
;	COMDAT pdata
pdata	SEGMENT
$pdata$?do_narrow@?$ctype@_W@std@@MEBAD_WD@Z DD imagerel $LN3
	DD	imagerel $LN3+45
	DD	imagerel $unwind$?do_narrow@?$ctype@_W@std@@MEBAD_WD@Z
pdata	ENDS
;	COMDAT pdata
pdata	SEGMENT
$pdata$?do_narrow@?$ctype@_W@std@@MEBAPEB_WPEB_W0DPEAD@Z DD imagerel $LN6
	DD	imagerel $LN6+124
	DD	imagerel $unwind$?do_narrow@?$ctype@_W@std@@MEBAPEB_WPEB_W0DPEAD@Z
pdata	ENDS
;	COMDAT pdata
pdata	SEGMENT
$pdata$??_G?$ctype@_W@std@@MEAAPEAXI@Z DD imagerel $LN4
	DD	imagerel $LN4+60
	DD	imagerel $unwind$??_G?$ctype@_W@std@@MEAAPEAXI@Z
pdata	ENDS
;	COMDAT pdata
pdata	SEGMENT
$pdata$??0failure@ios_base@std@@QEAA@PEBDAEBVerror_code@2@@Z DD imagerel $LN3
	DD	imagerel $LN3+88
	DD	imagerel $unwind$??0failure@ios_base@std@@QEAA@PEBDAEBVerror_code@2@@Z
pdata	ENDS
;	COMDAT pdata
pdata	SEGMENT
$pdata$??1failure@ios_base@std@@UEAA@XZ DD imagerel $LN3
	DD	imagerel $LN3+25
	DD	imagerel $unwind$??1failure@ios_base@std@@UEAA@XZ
pdata	ENDS
;	COMDAT pdata
pdata	SEGMENT
$pdata$??0failure@ios_base@std@@QEAA@AEBV012@@Z DD imagerel $LN3
	DD	imagerel $LN3+54
	DD	imagerel $unwind$??0failure@ios_base@std@@QEAA@AEBV012@@Z
pdata	ENDS
;	COMDAT pdata
pdata	SEGMENT
$pdata$??_Gfailure@ios_base@std@@UEAAPEAXI@Z DD imagerel $LN4
	DD	imagerel $LN4+60
	DD	imagerel $unwind$??_Gfailure@ios_base@std@@UEAAPEAXI@Z
pdata	ENDS
;	COMDAT pdata
pdata	SEGMENT
$pdata$?clear@ios_base@std@@QEAAXH_N@Z DD imagerel $LN9
	DD	imagerel $LN9+230
	DD	imagerel $unwind$?clear@ios_base@std@@QEAAXH_N@Z
pdata	ENDS
;	COMDAT pdata
pdata	SEGMENT
$pdata$?clear@ios_base@std@@QEAAXH@Z DD imagerel $LN3
	DD	imagerel $LN3+36
	DD	imagerel $unwind$?clear@ios_base@std@@QEAAXH@Z
pdata	ENDS
;	COMDAT pdata
pdata	SEGMENT
$pdata$?good@ios_base@std@@QEBA_NXZ DD imagerel $LN5
	DD	imagerel $LN5+51
	DD	imagerel $unwind$?good@ios_base@std@@QEBA_NXZ
pdata	ENDS
;	COMDAT pdata
pdata	SEGMENT
$pdata$?width@ios_base@std@@QEAA_J_J@Z DD imagerel $LN3
	DD	imagerel $LN3+50
	DD	imagerel $unwind$?width@ios_base@std@@QEAA_J_J@Z
pdata	ENDS
;	COMDAT pdata
pdata	SEGMENT
$pdata$?getloc@ios_base@std@@QEBA?AVlocale@2@XZ DD imagerel $LN3
	DD	imagerel $LN3+43
	DD	imagerel $unwind$?getloc@ios_base@std@@QEBA?AVlocale@2@XZ
pdata	ENDS
;	COMDAT pdata
pdata	SEGMENT
$pdata$??1ios_base@std@@UEAA@XZ DD imagerel $LN3
	DD	imagerel $LN3+40
	DD	imagerel $unwind$??1ios_base@std@@UEAA@XZ
pdata	ENDS
;	COMDAT pdata
pdata	SEGMENT
$pdata$?_Init@ios_base@std@@IEAAXXZ DD imagerel $LN5
	DD	imagerel $LN5+192
	DD	imagerel $unwind$?_Init@ios_base@std@@IEAAXXZ
pdata	ENDS
;	COMDAT pdata
pdata	SEGMENT
$pdata$??_Gios_base@std@@UEAAPEAXI@Z DD imagerel $LN4
	DD	imagerel $LN4+60
	DD	imagerel $unwind$??_Gios_base@std@@UEAAPEAXI@Z
pdata	ENDS
pdata	SEGMENT
$pdata$?InitializeFunctions@@YA_NXZ DD imagerel $LN10
	DD	imagerel $LN10+956
	DD	imagerel $unwind$?InitializeFunctions@@YA_NXZ
$pdata$?to_wstring@@YA?AV?$basic_string@_WU?$char_traits@_W@std@@V?$allocator@_W@2@@std@@H@Z DD imagerel $LN3
	DD	imagerel $LN3+95
	DD	imagerel $unwind$?to_wstring@@YA?AV?$basic_string@_WU?$char_traits@_W@std@@V?$allocator@_W@2@@std@@H@Z
pdata	ENDS
;	COMDAT pdata
pdata	SEGMENT
$pdata$??1?$basic_ios@_WU?$char_traits@_W@std@@@std@@UEAA@XZ DD imagerel $LN3
	DD	imagerel $LN3+40
	DD	imagerel $unwind$??1?$basic_ios@_WU?$char_traits@_W@std@@@std@@UEAA@XZ
pdata	ENDS
;	COMDAT pdata
pdata	SEGMENT
$pdata$?clear@?$basic_ios@_WU?$char_traits@_W@std@@@std@@QEAAXH_N@Z DD imagerel $LN5
	DD	imagerel $LN5+84
	DD	imagerel $unwind$?clear@?$basic_ios@_WU?$char_traits@_W@std@@@std@@QEAAXH_N@Z
pdata	ENDS
;	COMDAT pdata
pdata	SEGMENT
$pdata$?setstate@?$basic_ios@_WU?$char_traits@_W@std@@@std@@QEAAXH_N@Z DD imagerel $LN3
	DD	imagerel $LN3+56
	DD	imagerel $unwind$?setstate@?$basic_ios@_WU?$char_traits@_W@std@@@std@@QEAAXH_N@Z
pdata	ENDS
;	COMDAT pdata
pdata	SEGMENT
$pdata$?widen@?$basic_ios@_WU?$char_traits@_W@std@@@std@@QEBA_WD@Z DD imagerel $LN3
	DD	imagerel $LN3+74
	DD	imagerel $unwind$?widen@?$basic_ios@_WU?$char_traits@_W@std@@@std@@QEBA_WD@Z
pdata	ENDS
;	COMDAT pdata
pdata	SEGMENT
$pdata$?init@?$basic_ios@_WU?$char_traits@_W@std@@@std@@IEAAXPEAV?$basic_streambuf@_WU?$char_traits@_W@std@@@2@_N@Z DD imagerel $LN5
	DD	imagerel $LN5+133
	DD	imagerel $unwind$?init@?$basic_ios@_WU?$char_traits@_W@std@@@std@@IEAAXPEAV?$basic_streambuf@_WU?$char_traits@_W@std@@@2@_N@Z
pdata	ENDS
;	COMDAT pdata
pdata	SEGMENT
$pdata$??0?$basic_ios@_WU?$char_traits@_W@std@@@std@@IEAA@XZ DD imagerel $LN3
	DD	imagerel $LN3+81
	DD	imagerel $unwind$??0?$basic_ios@_WU?$char_traits@_W@std@@@std@@IEAA@XZ
pdata	ENDS
;	COMDAT pdata
pdata	SEGMENT
$pdata$??_G?$basic_ios@_WU?$char_traits@_W@std@@@std@@UEAAPEAXI@Z DD imagerel $LN4
	DD	imagerel $LN4+60
	DD	imagerel $unwind$??_G?$basic_ios@_WU?$char_traits@_W@std@@@std@@UEAAPEAXI@Z
pdata	ENDS
;	COMDAT pdata
pdata	SEGMENT
$pdata$??0?$basic_istream@_WU?$char_traits@_W@std@@@std@@QEAA@PEAV?$basic_streambuf@_WU?$char_traits@_W@std@@@1@_N@Z DD imagerel $LN4
	DD	imagerel $LN4+207
	DD	imagerel $unwind$??0?$basic_istream@_WU?$char_traits@_W@std@@@std@@QEAA@PEAV?$basic_streambuf@_WU?$char_traits@_W@std@@@1@_N@Z
pdata	ENDS
;	COMDAT pdata
pdata	SEGMENT
$pdata$??_G?$basic_istream@_WU?$char_traits@_W@std@@@std@@UEAAPEAXI@Z DD imagerel $LN4
	DD	imagerel $LN4+78
	DD	imagerel $unwind$??_G?$basic_istream@_WU?$char_traits@_W@std@@@std@@UEAAPEAXI@Z
pdata	ENDS
;	COMDAT pdata
pdata	SEGMENT
$pdata$??_D?$basic_istream@_WU?$char_traits@_W@std@@@std@@QEAAXXZ DD imagerel $LN3
	DD	imagerel $LN3+49
	DD	imagerel $unwind$??_D?$basic_istream@_WU?$char_traits@_W@std@@@std@@QEAAXXZ
pdata	ENDS
;	COMDAT pdata
pdata	SEGMENT
$pdata$??0?$basic_ostream@_WU?$char_traits@_W@std@@@std@@QEAA@W4_Uninitialized@1@_N@Z DD imagerel $LN7
	DD	imagerel $LN7+217
	DD	imagerel $unwind$??0?$basic_ostream@_WU?$char_traits@_W@std@@@std@@QEAA@W4_Uninitialized@1@_N@Z
pdata	ENDS
;	COMDAT pdata
pdata	SEGMENT
$pdata$?_Osfx@?$basic_ostream@_WU?$char_traits@_W@std@@@std@@QEAAXXZ DD imagerel $LN11
	DD	imagerel $LN11+176
	DD	imagerel $unwind$?_Osfx@?$basic_ostream@_WU?$char_traits@_W@std@@@std@@QEAAXXZ
pdata	ENDS
;	COMDAT pdata
pdata	SEGMENT
$pdata$?catch$0@?0??_Osfx@?$basic_ostream@_WU?$char_traits@_W@std@@@std@@QEAAXXZ@4HA DD imagerel ?catch$0@?0??_Osfx@?$basic_ostream@_WU?$char_traits@_W@std@@@std@@QEAAXXZ@4HA
	DD	imagerel ?catch$0@?0??_Osfx@?$basic_ostream@_WU?$char_traits@_W@std@@@std@@QEAAXXZ@4HA+27
	DD	imagerel $unwind$?catch$0@?0??_Osfx@?$basic_ostream@_WU?$char_traits@_W@std@@@std@@QEAAXXZ@4HA
pdata	ENDS
;	COMDAT pdata
pdata	SEGMENT
$pdata$??6?$basic_ostream@_WU?$char_traits@_W@std@@@std@@QEAAAEAV01@H@Z DD imagerel $LN14
	DD	imagerel $LN14+535
	DD	imagerel $unwind$??6?$basic_ostream@_WU?$char_traits@_W@std@@@std@@QEAAAEAV01@H@Z
pdata	ENDS
;	COMDAT pdata
pdata	SEGMENT
$pdata$?catch$0@?0???6?$basic_ostream@_WU?$char_traits@_W@std@@@std@@QEAAAEAV01@H@Z@4HA DD imagerel ?catch$0@?0???6?$basic_ostream@_WU?$char_traits@_W@std@@@std@@QEAAAEAV01@H@Z@4HA
	DD	imagerel ?catch$0@?0???6?$basic_ostream@_WU?$char_traits@_W@std@@@std@@QEAAAEAV01@H@Z@4HA+71
	DD	imagerel $unwind$?catch$0@?0???6?$basic_ostream@_WU?$char_traits@_W@std@@@std@@QEAAAEAV01@H@Z@4HA
pdata	ENDS
;	COMDAT pdata
pdata	SEGMENT
$pdata$?flush@?$basic_ostream@_WU?$char_traits@_W@std@@@std@@QEAAAEAV12@XZ DD imagerel $LN12
	DD	imagerel $LN12+182
	DD	imagerel $unwind$?flush@?$basic_ostream@_WU?$char_traits@_W@std@@@std@@QEAAAEAV12@XZ
pdata	ENDS
;	COMDAT pdata
pdata	SEGMENT
$pdata$?catch$0@?0??flush@?$basic_ostream@_WU?$char_traits@_W@std@@@std@@QEAAAEAV12@XZ@4HA DD imagerel ?catch$0@?0??flush@?$basic_ostream@_WU?$char_traits@_W@std@@@std@@QEAAAEAV12@XZ@4HA
	DD	imagerel ?catch$0@?0??flush@?$basic_ostream@_WU?$char_traits@_W@std@@@std@@QEAAAEAV12@XZ@4HA+65
	DD	imagerel $unwind$?catch$0@?0??flush@?$basic_ostream@_WU?$char_traits@_W@std@@@std@@QEAAAEAV12@XZ@4HA
pdata	ENDS
;	COMDAT pdata
pdata	SEGMENT
$pdata$??_G?$basic_ostream@_WU?$char_traits@_W@std@@@std@@UEAAPEAXI@Z DD imagerel $LN4
	DD	imagerel $LN4+78
	DD	imagerel $unwind$??_G?$basic_ostream@_WU?$char_traits@_W@std@@@std@@UEAAPEAXI@Z
pdata	ENDS
;	COMDAT pdata
pdata	SEGMENT
$pdata$??_D?$basic_ostream@_WU?$char_traits@_W@std@@@std@@QEAAXXZ DD imagerel $LN3
	DD	imagerel $LN3+49
	DD	imagerel $unwind$??_D?$basic_ostream@_WU?$char_traits@_W@std@@@std@@QEAAXXZ
pdata	ENDS
;	COMDAT pdata
pdata	SEGMENT
$pdata$??0?$basic_iostream@_WU?$char_traits@_W@std@@@std@@QEAA@PEAV?$basic_streambuf@_WU?$char_traits@_W@std@@@1@@Z DD imagerel $LN4
	DD	imagerel $LN4+208
	DD	imagerel $unwind$??0?$basic_iostream@_WU?$char_traits@_W@std@@@std@@QEAA@PEAV?$basic_streambuf@_WU?$char_traits@_W@std@@@1@@Z
pdata	ENDS
;	COMDAT pdata
pdata	SEGMENT
$pdata$??1?$basic_iostream@_WU?$char_traits@_W@std@@@std@@UEAA@XZ DD imagerel $LN3
	DD	imagerel $LN3+114
	DD	imagerel $unwind$??1?$basic_iostream@_WU?$char_traits@_W@std@@@std@@UEAA@XZ
pdata	ENDS
;	COMDAT pdata
pdata	SEGMENT
$pdata$??_G?$basic_iostream@_WU?$char_traits@_W@std@@@std@@UEAAPEAXI@Z DD imagerel $LN4
	DD	imagerel $LN4+78
	DD	imagerel $unwind$??_G?$basic_iostream@_WU?$char_traits@_W@std@@@std@@UEAAPEAXI@Z
pdata	ENDS
;	COMDAT pdata
pdata	SEGMENT
$pdata$??_D?$basic_iostream@_WU?$char_traits@_W@std@@@std@@QEAAXXZ DD imagerel $LN3
	DD	imagerel $LN3+49
	DD	imagerel $unwind$??_D?$basic_iostream@_WU?$char_traits@_W@std@@@std@@QEAAXXZ
pdata	ENDS
;	COMDAT pdata
pdata	SEGMENT
$pdata$??0?$basic_stringstream@_WU?$char_traits@_W@std@@V?$allocator@_W@2@@std@@QEAA@XZ DD imagerel $LN4
	DD	imagerel $LN4+216
	DD	imagerel $unwind$??0?$basic_stringstream@_WU?$char_traits@_W@std@@V?$allocator@_W@2@@std@@QEAA@XZ
pdata	ENDS
;	COMDAT pdata
pdata	SEGMENT
$pdata$??1?$basic_stringstream@_WU?$char_traits@_W@std@@V?$allocator@_W@2@@std@@UEAA@XZ DD imagerel $LN3
	DD	imagerel $LN3+137
	DD	imagerel $unwind$??1?$basic_stringstream@_WU?$char_traits@_W@std@@V?$allocator@_W@2@@std@@UEAA@XZ
pdata	ENDS
;	COMDAT pdata
pdata	SEGMENT
$pdata$?str@?$basic_stringstream@_WU?$char_traits@_W@std@@V?$allocator@_W@2@@std@@QEBA?AV?$basic_string@_WU?$char_traits@_W@std@@V?$allocator@_W@2@@2@XZ DD imagerel $LN3
	DD	imagerel $LN3+46
	DD	imagerel $unwind$?str@?$basic_stringstream@_WU?$char_traits@_W@std@@V?$allocator@_W@2@@std@@QEBA?AV?$basic_string@_WU?$char_traits@_W@std@@V?$allocator@_W@2@@2@XZ
pdata	ENDS
;	COMDAT pdata
pdata	SEGMENT
$pdata$??0?$basic_streambuf@_WU?$char_traits@_W@std@@@std@@IEAA@XZ DD imagerel $LN5
	DD	imagerel $LN5+262
	DD	imagerel $unwind$??0?$basic_streambuf@_WU?$char_traits@_W@std@@@std@@IEAA@XZ
pdata	ENDS
;	COMDAT pdata
pdata	SEGMENT
$pdata$??1?$basic_streambuf@_WU?$char_traits@_W@std@@@std@@UEAA@XZ DD imagerel $LN5
	DD	imagerel $LN5+82
	DD	imagerel $unwind$??1?$basic_streambuf@_WU?$char_traits@_W@std@@@std@@UEAA@XZ
pdata	ENDS
;	COMDAT pdata
pdata	SEGMENT
$pdata$?pubsync@?$basic_streambuf@_WU?$char_traits@_W@std@@@std@@QEAAHXZ DD imagerel $LN3
	DD	imagerel $LN3+30
	DD	imagerel $unwind$?pubsync@?$basic_streambuf@_WU?$char_traits@_W@std@@@std@@QEAAHXZ
pdata	ENDS
;	COMDAT pdata
pdata	SEGMENT
$pdata$?sputc@?$basic_streambuf@_WU?$char_traits@_W@std@@@std@@QEAAG_W@Z DD imagerel $LN5
	DD	imagerel $LN5+118
	DD	imagerel $unwind$?sputc@?$basic_streambuf@_WU?$char_traits@_W@std@@@std@@QEAAG_W@Z
pdata	ENDS
;	COMDAT pdata
pdata	SEGMENT
$pdata$?_Gninc@?$basic_streambuf@_WU?$char_traits@_W@std@@@std@@IEAAPEA_WXZ DD imagerel $LN3
	DD	imagerel $LN3+86
	DD	imagerel $unwind$?_Gninc@?$basic_streambuf@_WU?$char_traits@_W@std@@@std@@IEAAPEA_WXZ
pdata	ENDS
;	COMDAT pdata
pdata	SEGMENT
$pdata$?_Gnavail@?$basic_streambuf@_WU?$char_traits@_W@std@@@std@@IEBA_JXZ DD imagerel $LN5
	DD	imagerel $LN5+56
	DD	imagerel $unwind$?_Gnavail@?$basic_streambuf@_WU?$char_traits@_W@std@@@std@@IEBA_JXZ
pdata	ENDS
;	COMDAT pdata
pdata	SEGMENT
$pdata$?_Pninc@?$basic_streambuf@_WU?$char_traits@_W@std@@@std@@IEAAPEA_WXZ DD imagerel $LN3
	DD	imagerel $LN3+86
	DD	imagerel $unwind$?_Pninc@?$basic_streambuf@_WU?$char_traits@_W@std@@@std@@IEAAPEA_WXZ
pdata	ENDS
;	COMDAT pdata
pdata	SEGMENT
$pdata$?_Pnavail@?$basic_streambuf@_WU?$char_traits@_W@std@@@std@@IEBA_JXZ DD imagerel $LN5
	DD	imagerel $LN5+56
	DD	imagerel $unwind$?_Pnavail@?$basic_streambuf@_WU?$char_traits@_W@std@@@std@@IEBA_JXZ
pdata	ENDS
;	COMDAT pdata
pdata	SEGMENT
$pdata$?_Init@?$basic_streambuf@_WU?$char_traits@_W@std@@@std@@IEAAXXZ DD imagerel $LN3
	DD	imagerel $LN3+156
	DD	imagerel $unwind$?_Init@?$basic_streambuf@_WU?$char_traits@_W@std@@@std@@IEAAXXZ
pdata	ENDS
;	COMDAT pdata
pdata	SEGMENT
$pdata$?overflow@?$basic_streambuf@_WU?$char_traits@_W@std@@@std@@MEAAGG@Z DD imagerel $LN3
	DD	imagerel $LN3+24
	DD	imagerel $unwind$?overflow@?$basic_streambuf@_WU?$char_traits@_W@std@@@std@@MEAAGG@Z
pdata	ENDS
;	COMDAT pdata
pdata	SEGMENT
$pdata$?pbackfail@?$basic_streambuf@_WU?$char_traits@_W@std@@@std@@MEAAGG@Z DD imagerel $LN3
	DD	imagerel $LN3+24
	DD	imagerel $unwind$?pbackfail@?$basic_streambuf@_WU?$char_traits@_W@std@@@std@@MEAAGG@Z
pdata	ENDS
;	COMDAT pdata
pdata	SEGMENT
$pdata$?underflow@?$basic_streambuf@_WU?$char_traits@_W@std@@@std@@MEAAGXZ DD imagerel $LN3
	DD	imagerel $LN3+19
	DD	imagerel $unwind$?underflow@?$basic_streambuf@_WU?$char_traits@_W@std@@@std@@MEAAGXZ
pdata	ENDS
;	COMDAT pdata
pdata	SEGMENT
$pdata$?uflow@?$basic_streambuf@_WU?$char_traits@_W@std@@@std@@MEAAGXZ DD imagerel $LN5
	DD	imagerel $LN5+103
	DD	imagerel $unwind$?uflow@?$basic_streambuf@_WU?$char_traits@_W@std@@@std@@MEAAGXZ
pdata	ENDS
;	COMDAT pdata
pdata	SEGMENT
$pdata$?xsgetn@?$basic_streambuf@_WU?$char_traits@_W@std@@@std@@MEAA_JPEA_W_J@Z DD imagerel $LN9
	DD	imagerel $LN9+290
	DD	imagerel $unwind$?xsgetn@?$basic_streambuf@_WU?$char_traits@_W@std@@@std@@MEAA_JPEA_W_J@Z
pdata	ENDS
;	COMDAT pdata
pdata	SEGMENT
$pdata$?xsputn@?$basic_streambuf@_WU?$char_traits@_W@std@@@std@@MEAA_JPEB_W_J@Z DD imagerel $LN10
	DD	imagerel $LN10+303
	DD	imagerel $unwind$?xsputn@?$basic_streambuf@_WU?$char_traits@_W@std@@@std@@MEAA_JPEB_W_J@Z
pdata	ENDS
;	COMDAT pdata
pdata	SEGMENT
$pdata$?seekoff@?$basic_streambuf@_WU?$char_traits@_W@std@@@std@@MEAA?AV?$fpos@U_Mbstatet@@@2@_JHH@Z DD imagerel $LN3
	DD	imagerel $LN3+51
	DD	imagerel $unwind$?seekoff@?$basic_streambuf@_WU?$char_traits@_W@std@@@std@@MEAA?AV?$fpos@U_Mbstatet@@@2@_JHH@Z
pdata	ENDS
;	COMDAT pdata
pdata	SEGMENT
$pdata$?seekpos@?$basic_streambuf@_WU?$char_traits@_W@std@@@std@@MEAA?AV?$fpos@U_Mbstatet@@@2@V32@H@Z DD imagerel $LN3
	DD	imagerel $LN3+51
	DD	imagerel $unwind$?seekpos@?$basic_streambuf@_WU?$char_traits@_W@std@@@std@@MEAA?AV?$fpos@U_Mbstatet@@@2@V32@H@Z
pdata	ENDS
;	COMDAT pdata
pdata	SEGMENT
$pdata$??_G?$basic_streambuf@_WU?$char_traits@_W@std@@@std@@UEAAPEAXI@Z DD imagerel $LN4
	DD	imagerel $LN4+60
	DD	imagerel $unwind$??_G?$basic_streambuf@_WU?$char_traits@_W@std@@@std@@UEAAPEAXI@Z
pdata	ENDS
;	COMDAT pdata
pdata	SEGMENT
$pdata$??0?$basic_stringbuf@_WU?$char_traits@_W@std@@V?$allocator@_W@2@@std@@QEAA@H@Z DD imagerel $LN3
	DD	imagerel $LN3+96
	DD	imagerel $unwind$??0?$basic_stringbuf@_WU?$char_traits@_W@std@@V?$allocator@_W@2@@std@@QEAA@H@Z
pdata	ENDS
;	COMDAT pdata
pdata	SEGMENT
$pdata$??1?$basic_stringbuf@_WU?$char_traits@_W@std@@V?$allocator@_W@2@@std@@UEAA@XZ DD imagerel $LN3
	DD	imagerel $LN3+51
	DD	imagerel $unwind$??1?$basic_stringbuf@_WU?$char_traits@_W@std@@V?$allocator@_W@2@@std@@UEAA@XZ
pdata	ENDS
;	COMDAT pdata
pdata	SEGMENT
$pdata$?_Get_buffer_view@?$basic_stringbuf@_WU?$char_traits@_W@std@@V?$allocator@_W@2@@std@@QEBA?AU_Buffer_view@12@XZ DD imagerel $LN7
	DD	imagerel $LN7+304
	DD	imagerel $unwind$?_Get_buffer_view@?$basic_stringbuf@_WU?$char_traits@_W@std@@V?$allocator@_W@2@@std@@QEBA?AU_Buffer_view@12@XZ
pdata	ENDS
;	COMDAT pdata
pdata	SEGMENT
$pdata$?str@?$basic_stringbuf@_WU?$char_traits@_W@std@@V?$allocator@_W@2@@std@@QEBA?AV?$basic_string@_WU?$char_traits@_W@std@@V?$allocator@_W@2@@2@XZ DD imagerel $LN4
	DD	imagerel $LN4+116
	DD	imagerel $unwind$?str@?$basic_stringbuf@_WU?$char_traits@_W@std@@V?$allocator@_W@2@@std@@QEBA?AV?$basic_string@_WU?$char_traits@_W@std@@V?$allocator@_W@2@@2@XZ
pdata	ENDS
;	COMDAT pdata
pdata	SEGMENT
$pdata$?overflow@?$basic_stringbuf@_WU?$char_traits@_W@std@@V?$allocator@_W@2@@std@@MEAAGG@Z DD imagerel $LN16
	DD	imagerel $LN16+661
	DD	imagerel $unwind$?overflow@?$basic_stringbuf@_WU?$char_traits@_W@std@@V?$allocator@_W@2@@std@@MEAAGG@Z
pdata	ENDS
;	COMDAT pdata
pdata	SEGMENT
$pdata$?pbackfail@?$basic_stringbuf@_WU?$char_traits@_W@std@@V?$allocator@_W@2@@std@@MEAAGG@Z DD imagerel $LN6
	DD	imagerel $LN6+243
	DD	imagerel $unwind$?pbackfail@?$basic_stringbuf@_WU?$char_traits@_W@std@@V?$allocator@_W@2@@std@@MEAAGG@Z
pdata	ENDS
;	COMDAT pdata
pdata	SEGMENT
$pdata$?underflow@?$basic_stringbuf@_WU?$char_traits@_W@std@@V?$allocator@_W@2@@std@@MEAAGXZ DD imagerel $LN8
	DD	imagerel $LN8+262
	DD	imagerel $unwind$?underflow@?$basic_stringbuf@_WU?$char_traits@_W@std@@V?$allocator@_W@2@@std@@MEAAGXZ
pdata	ENDS
;	COMDAT pdata
pdata	SEGMENT
$pdata$?seekoff@?$basic_stringbuf@_WU?$char_traits@_W@std@@V?$allocator@_W@2@@std@@MEAA?AV?$fpos@U_Mbstatet@@@2@_JHH@Z DD imagerel $LN31
	DD	imagerel $LN31+932
	DD	imagerel $unwind$?seekoff@?$basic_stringbuf@_WU?$char_traits@_W@std@@V?$allocator@_W@2@@std@@MEAA?AV?$fpos@U_Mbstatet@@@2@_JHH@Z
pdata	ENDS
;	COMDAT pdata
pdata	SEGMENT
$pdata$?seekpos@?$basic_stringbuf@_WU?$char_traits@_W@std@@V?$allocator@_W@2@@std@@MEAA?AV?$fpos@U_Mbstatet@@@2@V32@H@Z DD imagerel $LN18
	DD	imagerel $LN18+601
	DD	imagerel $unwind$?seekpos@?$basic_stringbuf@_WU?$char_traits@_W@std@@V?$allocator@_W@2@@std@@MEAA?AV?$fpos@U_Mbstatet@@@2@V32@H@Z
pdata	ENDS
;	COMDAT pdata
pdata	SEGMENT
$pdata$?_Tidy@?$basic_stringbuf@_WU?$char_traits@_W@std@@V?$allocator@_W@2@@std@@IEAAXXZ DD imagerel $LN6
	DD	imagerel $LN6+214
	DD	imagerel $unwind$?_Tidy@?$basic_stringbuf@_WU?$char_traits@_W@std@@V?$allocator@_W@2@@std@@IEAAXXZ
pdata	ENDS
;	COMDAT pdata
pdata	SEGMENT
$pdata$?_Getstate@?$basic_stringbuf@_WU?$char_traits@_W@std@@V?$allocator@_W@2@@std@@CAHH@Z DD imagerel $LN7
	DD	imagerel $LN7+103
	DD	imagerel $unwind$?_Getstate@?$basic_stringbuf@_WU?$char_traits@_W@std@@V?$allocator@_W@2@@std@@CAHH@Z
pdata	ENDS
;	COMDAT pdata
pdata	SEGMENT
$pdata$??_G?$basic_stringbuf@_WU?$char_traits@_W@std@@V?$allocator@_W@2@@std@@UEAAPEAXI@Z DD imagerel $LN4
	DD	imagerel $LN4+60
	DD	imagerel $unwind$??_G?$basic_stringbuf@_WU?$char_traits@_W@std@@V?$allocator@_W@2@@std@@UEAAPEAXI@Z
pdata	ENDS
;	COMDAT pdata
pdata	SEGMENT
$pdata$??_G?$basic_stringstream@_WU?$char_traits@_W@std@@V?$allocator@_W@2@@std@@UEAAPEAXI@Z DD imagerel $LN4
	DD	imagerel $LN4+84
	DD	imagerel $unwind$??_G?$basic_stringstream@_WU?$char_traits@_W@std@@V?$allocator@_W@2@@std@@UEAAPEAXI@Z
pdata	ENDS
;	COMDAT pdata
pdata	SEGMENT
$pdata$??_D?$basic_stringstream@_WU?$char_traits@_W@std@@V?$allocator@_W@2@@std@@QEAAXXZ DD imagerel $LN3
	DD	imagerel $LN3+53
	DD	imagerel $unwind$??_D?$basic_stringstream@_WU?$char_traits@_W@std@@V?$allocator@_W@2@@std@@QEAAXXZ
pdata	ENDS
pdata	SEGMENT
$pdata$?showError@@YAXK@Z DD imagerel $LN3
	DD	imagerel $LN3+111
	DD	imagerel $unwind$?showError@@YAXK@Z
$pdata$?CopyTextToShell@@YA_NPEAXK@Z DD imagerel $LN4
	DD	imagerel $LN4+80
	DD	imagerel $unwind$?CopyTextToShell@@YA_NPEAXK@Z
$pdata$?AddShellSectionAndModifyEntryPoint@@YA_NPEAX@Z DD imagerel $LN13
	DD	imagerel $LN13+1254
	DD	imagerel $unwind$?AddShellSectionAndModifyEntryPoint@@YA_NPEAX@Z
$pdata$?GetTextSection@@YAPEAXPEAXPEAK@Z DD imagerel $LN9
	DD	imagerel $LN9+264
	DD	imagerel $unwind$?GetTextSection@@YAPEAXPEAXPEAK@Z
$pdata$main DD	imagerel $LN14
	DD	imagerel $LN14+1337
	DD	imagerel $unwind$main
pdata	ENDS
;	COMDAT pdata
pdata	SEGMENT
$pdata$??0?$fpos@U_Mbstatet@@@std@@QEAA@_J@Z DD imagerel $LN3
	DD	imagerel $LN3+65
	DD	imagerel $unwind$??0?$fpos@U_Mbstatet@@@std@@QEAA@_J@Z
pdata	ENDS
;	COMDAT pdata
pdata	SEGMENT
$pdata$??$max@PEA_W@std@@YAAEBQEA_WAEBQEA_W0@Z DD imagerel $LN5
	DD	imagerel $LN5+71
	DD	imagerel $unwind$??$max@PEA_W@std@@YAAEBQEA_WAEBQEA_W0@Z
pdata	ENDS
;	COMDAT pdata
pdata	SEGMENT
$pdata$??$_Allocate_at_least_helper@V?$allocator@_W@std@@@std@@YAPEA_WAEAV?$allocator@_W@0@AEA_K@Z DD imagerel $LN3
	DD	imagerel $LN3+37
	DD	imagerel $unwind$??$_Allocate_at_least_helper@V?$allocator@_W@std@@@std@@YAPEA_WAEAV?$allocator@_W@0@AEA_K@Z
pdata	ENDS
;	COMDAT pdata
pdata	SEGMENT
$pdata$?pointer_to@?$pointer_traits@PEA_W@std@@SAPEA_WAEA_W@Z DD imagerel $LN3
	DD	imagerel $LN3+24
	DD	imagerel $unwind$?pointer_to@?$pointer_traits@PEA_W@std@@SAPEA_WAEA_W@Z
pdata	ENDS
;	COMDAT pdata
pdata	SEGMENT
$pdata$??0_Sentry_base@?$basic_ostream@_WU?$char_traits@_W@std@@@std@@QEAA@AEAV12@@Z DD imagerel $LN4
	DD	imagerel $LN4+111
	DD	imagerel $unwind$??0_Sentry_base@?$basic_ostream@_WU?$char_traits@_W@std@@@std@@QEAA@AEAV12@@Z
pdata	ENDS
;	COMDAT pdata
pdata	SEGMENT
$pdata$??1_Sentry_base@?$basic_ostream@_WU?$char_traits@_W@std@@@std@@QEAA@XZ DD imagerel $LN4
	DD	imagerel $LN4+88
	DD	imagerel $unwind$??1_Sentry_base@?$basic_ostream@_WU?$char_traits@_W@std@@@std@@QEAA@XZ
pdata	ENDS
;	COMDAT pdata
pdata	SEGMENT
$pdata$??0sentry@?$basic_ostream@_WU?$char_traits@_W@std@@@std@@QEAA@AEAV12@@Z DD imagerel $LN6
	DD	imagerel $LN6+205
	DD	imagerel $unwind$??0sentry@?$basic_ostream@_WU?$char_traits@_W@std@@@std@@QEAA@AEAV12@@Z
pdata	ENDS
;	COMDAT pdata
pdata	SEGMENT
$pdata$??1sentry@?$basic_ostream@_WU?$char_traits@_W@std@@@std@@QEAA@XZ DD imagerel $LN6
	DD	imagerel $LN6+81
	DD	imagerel $unwind$??1sentry@?$basic_ostream@_WU?$char_traits@_W@std@@@std@@QEAA@XZ
pdata	ENDS
;	COMDAT pdata
pdata	SEGMENT
$pdata$??$use_facet@V?$num_put@_WV?$ostreambuf_iterator@_WU?$char_traits@_W@std@@@std@@@std@@@std@@YAAEBV?$num_put@_WV?$ostreambuf_iterator@_WU?$char_traits@_W@std@@@std@@@0@AEBVlocale@0@@Z DD imagerel $LN8
	DD	imagerel $LN8+255
	DD	imagerel $unwind$??$use_facet@V?$num_put@_WV?$ostreambuf_iterator@_WU?$char_traits@_W@std@@@std@@@std@@@std@@YAAEBV?$num_put@_WV?$ostreambuf_iterator@_WU?$char_traits@_W@std@@@std@@@0@AEBVlocale@0@@Z
pdata	ENDS
;	COMDAT pdata
pdata	SEGMENT
$pdata$?_Getcat@?$num_put@_WV?$ostreambuf_iterator@_WU?$char_traits@_W@std@@@std@@@std@@SA_KPEAPEBVfacet@locale@2@PEBV42@@Z DD imagerel $LN7
	DD	imagerel $LN7+200
	DD	imagerel $unwind$?_Getcat@?$num_put@_WV?$ostreambuf_iterator@_WU?$char_traits@_W@std@@@std@@@std@@SA_KPEAPEBVfacet@locale@2@PEBV42@@Z
pdata	ENDS
;	COMDAT pdata
pdata	SEGMENT
$pdata$??1?$num_put@_WV?$ostreambuf_iterator@_WU?$char_traits@_W@std@@@std@@@std@@MEAA@XZ DD imagerel $LN3
	DD	imagerel $LN3+40
	DD	imagerel $unwind$??1?$num_put@_WV?$ostreambuf_iterator@_WU?$char_traits@_W@std@@@std@@@std@@MEAA@XZ
pdata	ENDS
;	COMDAT pdata
pdata	SEGMENT
$pdata$??0?$num_put@_WV?$ostreambuf_iterator@_WU?$char_traits@_W@std@@@std@@@std@@QEAA@AEBV_Locinfo@1@_K@Z DD imagerel $LN3
	DD	imagerel $LN3+75
	DD	imagerel $unwind$??0?$num_put@_WV?$ostreambuf_iterator@_WU?$char_traits@_W@std@@@std@@@std@@QEAA@AEBV_Locinfo@1@_K@Z
pdata	ENDS
;	COMDAT pdata
pdata	SEGMENT
$pdata$?put@?$num_put@_WV?$ostreambuf_iterator@_WU?$char_traits@_W@std@@@std@@@std@@QEBA?AV?$ostreambuf_iterator@_WU?$char_traits@_W@std@@@2@V32@AEAVios_base@2@_WJ@Z DD imagerel $LN3
	DD	imagerel $LN3+113
	DD	imagerel $unwind$?put@?$num_put@_WV?$ostreambuf_iterator@_WU?$char_traits@_W@std@@@std@@@std@@QEBA?AV?$ostreambuf_iterator@_WU?$char_traits@_W@std@@@2@V32@AEAVios_base@2@_WJ@Z
pdata	ENDS
;	COMDAT pdata
pdata	SEGMENT
$pdata$?do_put@?$num_put@_WV?$ostreambuf_iterator@_WU?$char_traits@_W@std@@@std@@@std@@MEBA?AV?$ostreambuf_iterator@_WU?$char_traits@_W@std@@@2@V32@AEAVios_base@2@_W_N@Z DD imagerel $LN11
	DD	imagerel $LN11+802
	DD	imagerel $unwind$?do_put@?$num_put@_WV?$ostreambuf_iterator@_WU?$char_traits@_W@std@@@std@@@std@@MEBA?AV?$ostreambuf_iterator@_WU?$char_traits@_W@std@@@2@V32@AEAVios_base@2@_W_N@Z
pdata	ENDS
;	COMDAT pdata
pdata	SEGMENT
$pdata$?do_put@?$num_put@_WV?$ostreambuf_iterator@_WU?$char_traits@_W@std@@@std@@@std@@MEBA?AV?$ostreambuf_iterator@_WU?$char_traits@_W@std@@@2@V32@AEAVios_base@2@_WJ@Z DD imagerel $LN3
	DD	imagerel $LN3+201
	DD	imagerel $unwind$?do_put@?$num_put@_WV?$ostreambuf_iterator@_WU?$char_traits@_W@std@@@std@@@std@@MEBA?AV?$ostreambuf_iterator@_WU?$char_traits@_W@std@@@2@V32@AEAVios_base@2@_WJ@Z
pdata	ENDS
;	COMDAT pdata
pdata	SEGMENT
$pdata$?do_put@?$num_put@_WV?$ostreambuf_iterator@_WU?$char_traits@_W@std@@@std@@@std@@MEBA?AV?$ostreambuf_iterator@_WU?$char_traits@_W@std@@@2@V32@AEAVios_base@2@_WK@Z DD imagerel $LN3
	DD	imagerel $LN3+201
	DD	imagerel $unwind$?do_put@?$num_put@_WV?$ostreambuf_iterator@_WU?$char_traits@_W@std@@@std@@@std@@MEBA?AV?$ostreambuf_iterator@_WU?$char_traits@_W@std@@@2@V32@AEAVios_base@2@_WK@Z
pdata	ENDS
;	COMDAT pdata
pdata	SEGMENT
$pdata$?do_put@?$num_put@_WV?$ostreambuf_iterator@_WU?$char_traits@_W@std@@@std@@@std@@MEBA?AV?$ostreambuf_iterator@_WU?$char_traits@_W@std@@@2@V32@AEAVios_base@2@_W_J@Z DD imagerel $LN3
	DD	imagerel $LN3+201
	DD	imagerel $unwind$?do_put@?$num_put@_WV?$ostreambuf_iterator@_WU?$char_traits@_W@std@@@std@@@std@@MEBA?AV?$ostreambuf_iterator@_WU?$char_traits@_W@std@@@2@V32@AEAVios_base@2@_W_J@Z
pdata	ENDS
;	COMDAT pdata
pdata	SEGMENT
$pdata$?do_put@?$num_put@_WV?$ostreambuf_iterator@_WU?$char_traits@_W@std@@@std@@@std@@MEBA?AV?$ostreambuf_iterator@_WU?$char_traits@_W@std@@@2@V32@AEAVios_base@2@_W_K@Z DD imagerel $LN3
	DD	imagerel $LN3+201
	DD	imagerel $unwind$?do_put@?$num_put@_WV?$ostreambuf_iterator@_WU?$char_traits@_W@std@@@std@@@std@@MEBA?AV?$ostreambuf_iterator@_WU?$char_traits@_W@std@@@2@V32@AEAVios_base@2@_W_K@Z
pdata	ENDS
;	COMDAT pdata
pdata	SEGMENT
$pdata$?do_put@?$num_put@_WV?$ostreambuf_iterator@_WU?$char_traits@_W@std@@@std@@@std@@MEBA?AV?$ostreambuf_iterator@_WU?$char_traits@_W@std@@@2@V32@AEAVios_base@2@_WN@Z DD imagerel $LN12
	DD	imagerel $LN12+671
	DD	imagerel $unwind$?do_put@?$num_put@_WV?$ostreambuf_iterator@_WU?$char_traits@_W@std@@@std@@@std@@MEBA?AV?$ostreambuf_iterator@_WU?$char_traits@_W@std@@@2@V32@AEAVios_base@2@_WN@Z
pdata	ENDS
;	COMDAT pdata
pdata	SEGMENT
$pdata$?do_put@?$num_put@_WV?$ostreambuf_iterator@_WU?$char_traits@_W@std@@@std@@@std@@MEBA?AV?$ostreambuf_iterator@_WU?$char_traits@_W@std@@@2@V32@AEAVios_base@2@_WO@Z DD imagerel $LN12
	DD	imagerel $LN12+671
	DD	imagerel $unwind$?do_put@?$num_put@_WV?$ostreambuf_iterator@_WU?$char_traits@_W@std@@@std@@@std@@MEBA?AV?$ostreambuf_iterator@_WU?$char_traits@_W@std@@@2@V32@AEAVios_base@2@_WO@Z
pdata	ENDS
;	COMDAT pdata
pdata	SEGMENT
$pdata$?do_put@?$num_put@_WV?$ostreambuf_iterator@_WU?$char_traits@_W@std@@@std@@@std@@MEBA?AV?$ostreambuf_iterator@_WU?$char_traits@_W@std@@@2@V32@AEAVios_base@2@_WPEBX@Z DD imagerel $LN3
	DD	imagerel $LN3+164
	DD	imagerel $unwind$?do_put@?$num_put@_WV?$ostreambuf_iterator@_WU?$char_traits@_W@std@@@std@@@std@@MEBA?AV?$ostreambuf_iterator@_WU?$char_traits@_W@std@@@2@V32@AEAVios_base@2@_WPEBX@Z
pdata	ENDS
;	COMDAT pdata
pdata	SEGMENT
$pdata$?_Ffmt@?$num_put@_WV?$ostreambuf_iterator@_WU?$char_traits@_W@std@@@std@@@std@@AEBAPEADPEADDH@Z DD imagerel $LN20
	DD	imagerel $LN20+367
	DD	imagerel $unwind$?_Ffmt@?$num_put@_WV?$ostreambuf_iterator@_WU?$char_traits@_W@std@@@std@@@std@@AEBAPEADPEADDH@Z
pdata	ENDS
;	COMDAT pdata
pdata	SEGMENT
$pdata$?_Ifmt@?$num_put@_WV?$ostreambuf_iterator@_WU?$char_traits@_W@std@@@std@@@std@@AEBAPEADPEADPEBDH@Z DD imagerel $LN13
	DD	imagerel $LN13+390
	DD	imagerel $unwind$?_Ifmt@?$num_put@_WV?$ostreambuf_iterator@_WU?$char_traits@_W@std@@@std@@@std@@AEBAPEADPEADPEBDH@Z
pdata	ENDS
;	COMDAT pdata
pdata	SEGMENT
$pdata$?_Iput@?$num_put@_WV?$ostreambuf_iterator@_WU?$char_traits@_W@std@@@std@@@std@@AEBA?AV?$ostreambuf_iterator@_WU?$char_traits@_W@std@@@2@V32@AEAVios_base@2@_WPEAD_K@Z DD imagerel $LN19
	DD	imagerel $LN19+1600
	DD	imagerel $unwind$?_Iput@?$num_put@_WV?$ostreambuf_iterator@_WU?$char_traits@_W@std@@@std@@@std@@AEBA?AV?$ostreambuf_iterator@_WU?$char_traits@_W@std@@@2@V32@AEAVios_base@2@_WPEAD_K@Z
pdata	ENDS
;	COMDAT pdata
pdata	SEGMENT
$pdata$?_Put@?$num_put@_WV?$ostreambuf_iterator@_WU?$char_traits@_W@std@@@std@@@std@@AEBA?AV?$ostreambuf_iterator@_WU?$char_traits@_W@std@@@2@V32@PEB_W_K@Z DD imagerel $LN6
	DD	imagerel $LN6+131
	DD	imagerel $unwind$?_Put@?$num_put@_WV?$ostreambuf_iterator@_WU?$char_traits@_W@std@@@std@@@std@@AEBA?AV?$ostreambuf_iterator@_WU?$char_traits@_W@std@@@2@V32@PEB_W_K@Z
pdata	ENDS
;	COMDAT pdata
pdata	SEGMENT
$pdata$?_Rep@?$num_put@_WV?$ostreambuf_iterator@_WU?$char_traits@_W@std@@@std@@@std@@AEBA?AV?$ostreambuf_iterator@_WU?$char_traits@_W@std@@@2@V32@_W_K@Z DD imagerel $LN6
	DD	imagerel $LN6+116
	DD	imagerel $unwind$?_Rep@?$num_put@_WV?$ostreambuf_iterator@_WU?$char_traits@_W@std@@@std@@@std@@AEBA?AV?$ostreambuf_iterator@_WU?$char_traits@_W@std@@@2@V32@_W_K@Z
pdata	ENDS
;	COMDAT pdata
pdata	SEGMENT
$pdata$??_G?$num_put@_WV?$ostreambuf_iterator@_WU?$char_traits@_W@std@@@std@@@std@@MEAAPEAXI@Z DD imagerel $LN4
	DD	imagerel $LN4+60
	DD	imagerel $unwind$??_G?$num_put@_WV?$ostreambuf_iterator@_WU?$char_traits@_W@std@@@std@@@std@@MEAAPEAXI@Z
pdata	ENDS
;	COMDAT pdata
pdata	SEGMENT
$pdata$??4?$ostreambuf_iterator@_WU?$char_traits@_W@std@@@std@@QEAAAEAV01@_W@Z DD imagerel $LN5
	DD	imagerel $LN5+96
	DD	imagerel $unwind$??4?$ostreambuf_iterator@_WU?$char_traits@_W@std@@@std@@QEAAAEAV01@_W@Z
pdata	ENDS
;	COMDAT pdata
pdata	SEGMENT
$pdata$??$?0V?$allocator@_W@std@@$$V@?$_Compressed_pair@V?$allocator@_W@std@@V?$_String_val@U?$_Simple_types@_W@std@@@2@$00@std@@QEAA@U_One_then_variadic_args_t@1@$$QEAV?$allocator@_W@1@@Z DD imagerel $LN3
	DD	imagerel $LN3+52
	DD	imagerel $unwind$??$?0V?$allocator@_W@std@@$$V@?$_Compressed_pair@V?$allocator@_W@std@@V?$_String_val@U?$_Simple_types@_W@std@@@2@$00@std@@QEAA@U_One_then_variadic_args_t@1@$$QEAV?$allocator@_W@1@@Z
pdata	ENDS
;	COMDAT pdata
pdata	SEGMENT
$pdata$??$?0$$V@?$_Compressed_pair@V?$allocator@_W@std@@V?$_String_val@U?$_Simple_types@_W@std@@@2@$00@std@@QEAA@U_Zero_then_variadic_args_t@1@@Z DD imagerel $LN3
	DD	imagerel $LN3+47
	DD	imagerel $unwind$??$?0$$V@?$_Compressed_pair@V?$allocator@_W@std@@V?$_String_val@U?$_Simple_types@_W@std@@@2@$00@std@@QEAA@U_Zero_then_variadic_args_t@1@@Z
pdata	ENDS
;	COMDAT pdata
pdata	SEGMENT
$pdata$??$_Construct@$0A@_W@?$basic_string@_WU?$char_traits@_W@std@@V?$allocator@_W@2@@std@@AEAAX_W_K@Z DD imagerel $LN5
	DD	imagerel $LN5+396
	DD	imagerel $unwind$??$_Construct@$0A@_W@?$basic_string@_WU?$char_traits@_W@std@@V?$allocator@_W@2@@std@@AEAAX_W_K@Z
pdata	ENDS
;	COMDAT pdata
pdata	SEGMENT
$pdata$??$_Construct@$00PEB_W@?$basic_string@_WU?$char_traits@_W@std@@V?$allocator@_W@2@@std@@AEAAXQEB_W_K@Z DD imagerel $LN5
	DD	imagerel $LN5+394
	DD	imagerel $unwind$??$_Construct@$00PEB_W@?$basic_string@_WU?$char_traits@_W@std@@V?$allocator@_W@2@@std@@AEAAXQEB_W_K@Z
pdata	ENDS
;	COMDAT pdata
pdata	SEGMENT
$pdata$??$?0V?$allocator@D@std@@$$V@?$_Compressed_pair@V?$allocator@D@std@@V?$_String_val@U?$_Simple_types@D@std@@@2@$00@std@@QEAA@U_One_then_variadic_args_t@1@$$QEAV?$allocator@D@1@@Z DD imagerel $LN3
	DD	imagerel $LN3+52
	DD	imagerel $unwind$??$?0V?$allocator@D@std@@$$V@?$_Compressed_pair@V?$allocator@D@std@@V?$_String_val@U?$_Simple_types@D@std@@@2@$00@std@@QEAA@U_One_then_variadic_args_t@1@$$QEAV?$allocator@D@1@@Z
pdata	ENDS
;	COMDAT pdata
pdata	SEGMENT
$pdata$??$?0$$V@?$_Compressed_pair@V?$allocator@D@std@@V?$_String_val@U?$_Simple_types@D@std@@@2@$00@std@@QEAA@U_Zero_then_variadic_args_t@1@@Z DD imagerel $LN3
	DD	imagerel $LN3+47
	DD	imagerel $unwind$??$?0$$V@?$_Compressed_pair@V?$allocator@D@std@@V?$_String_val@U?$_Simple_types@D@std@@@2@$00@std@@QEAA@U_Zero_then_variadic_args_t@1@@Z
pdata	ENDS
;	COMDAT pdata
pdata	SEGMENT
$pdata$??$_Construct@$00PEBD@?$basic_string@DU?$char_traits@D@std@@V?$allocator@D@2@@std@@AEAAXQEBD_K@Z DD imagerel $LN5
	DD	imagerel $LN5+388
	DD	imagerel $unwind$??$_Construct@$00PEBD@?$basic_string@DU?$char_traits@D@std@@V?$allocator@D@2@@std@@AEAAXQEBD_K@Z
pdata	ENDS
;	COMDAT pdata
pdata	SEGMENT
$pdata$??$_Construct@$01PEBD@?$basic_string@DU?$char_traits@D@std@@V?$allocator@D@2@@std@@AEAAXQEBD_K@Z DD imagerel $LN5
	DD	imagerel $LN5+354
	DD	imagerel $unwind$??$_Construct@$01PEBD@?$basic_string@DU?$char_traits@D@std@@V?$allocator@D@2@@std@@AEAAXQEBD_K@Z
pdata	ENDS
;	COMDAT pdata
pdata	SEGMENT
$pdata$??$_Float_put_desired_precision@O@std@@YAH_JH@Z DD imagerel $LN14
	DD	imagerel $LN14+151
	DD	imagerel $unwind$??$_Float_put_desired_precision@O@std@@YAH_JH@Z
pdata	ENDS
;	COMDAT pdata
pdata	SEGMENT
$pdata$??$isfinite@O@@YA_NO@Z DD imagerel $LN5
	DD	imagerel $LN5+53
	DD	imagerel $unwind$??$isfinite@O@@YA_NO@Z
pdata	ENDS
;	COMDAT pdata
pdata	SEGMENT
$pdata$??$_Fput_v3@$0A@@?$num_put@_WV?$ostreambuf_iterator@_WU?$char_traits@_W@std@@@std@@@std@@AEBA?AV?$ostreambuf_iterator@_WU?$char_traits@_W@std@@@1@V21@AEAVios_base@1@_WPEBD_K_N@Z DD imagerel $LN24
	DD	imagerel $LN24+1878
	DD	imagerel $unwind$??$_Fput_v3@$0A@@?$num_put@_WV?$ostreambuf_iterator@_WU?$char_traits@_W@std@@@std@@@std@@AEBA?AV?$ostreambuf_iterator@_WU?$char_traits@_W@std@@@1@V21@AEAVios_base@1@_WPEBD_K_N@Z
pdata	ENDS
;	COMDAT pdata
pdata	SEGMENT
$pdata$??$_Float_put_desired_precision@N@std@@YAH_JH@Z DD imagerel $LN14
	DD	imagerel $LN14+151
	DD	imagerel $unwind$??$_Float_put_desired_precision@N@std@@YAH_JH@Z
pdata	ENDS
;	COMDAT pdata
pdata	SEGMENT
$pdata$??$isfinite@N@@YA_NN@Z DD imagerel $LN5
	DD	imagerel $LN5+53
	DD	imagerel $unwind$??$isfinite@N@@YA_NN@Z
pdata	ENDS
;	COMDAT pdata
pdata	SEGMENT
$pdata$??$use_facet@V?$numpunct@_W@std@@@std@@YAAEBV?$numpunct@_W@0@AEBVlocale@0@@Z DD imagerel $LN8
	DD	imagerel $LN8+255
	DD	imagerel $unwind$??$use_facet@V?$numpunct@_W@std@@@std@@YAAEBV?$numpunct@_W@0@AEBVlocale@0@@Z
pdata	ENDS
;	COMDAT pdata
pdata	SEGMENT
$pdata$?decimal_point@?$numpunct@_W@std@@QEBA_WXZ DD imagerel $LN3
	DD	imagerel $LN3+30
	DD	imagerel $unwind$?decimal_point@?$numpunct@_W@std@@QEBA_WXZ
pdata	ENDS
;	COMDAT pdata
pdata	SEGMENT
$pdata$?thousands_sep@?$numpunct@_W@std@@QEBA_WXZ DD imagerel $LN3
	DD	imagerel $LN3+30
	DD	imagerel $unwind$?thousands_sep@?$numpunct@_W@std@@QEBA_WXZ
pdata	ENDS
;	COMDAT pdata
pdata	SEGMENT
$pdata$?grouping@?$numpunct@_W@std@@QEBA?AV?$basic_string@DU?$char_traits@D@std@@V?$allocator@D@2@@2@XZ DD imagerel $LN3
	DD	imagerel $LN3+45
	DD	imagerel $unwind$?grouping@?$numpunct@_W@std@@QEBA?AV?$basic_string@DU?$char_traits@D@std@@V?$allocator@D@2@@2@XZ
pdata	ENDS
;	COMDAT pdata
pdata	SEGMENT
$pdata$?falsename@?$numpunct@_W@std@@QEBA?AV?$basic_string@_WU?$char_traits@_W@std@@V?$allocator@_W@2@@2@XZ DD imagerel $LN3
	DD	imagerel $LN3+45
	DD	imagerel $unwind$?falsename@?$numpunct@_W@std@@QEBA?AV?$basic_string@_WU?$char_traits@_W@std@@V?$allocator@_W@2@@2@XZ
pdata	ENDS
;	COMDAT pdata
pdata	SEGMENT
$pdata$?truename@?$numpunct@_W@std@@QEBA?AV?$basic_string@_WU?$char_traits@_W@std@@V?$allocator@_W@2@@2@XZ DD imagerel $LN3
	DD	imagerel $LN3+45
	DD	imagerel $unwind$?truename@?$numpunct@_W@std@@QEBA?AV?$basic_string@_WU?$char_traits@_W@std@@V?$allocator@_W@2@@2@XZ
pdata	ENDS
;	COMDAT pdata
pdata	SEGMENT
$pdata$??0?$numpunct@_W@std@@QEAA@AEBV_Locinfo@1@_K_N@Z DD imagerel $LN3
	DD	imagerel $LN3+86
	DD	imagerel $unwind$??0?$numpunct@_W@std@@QEAA@AEBV_Locinfo@1@_K_N@Z
pdata	ENDS
;	COMDAT pdata
pdata	SEGMENT
$pdata$?_Getcat@?$numpunct@_W@std@@SA_KPEAPEBVfacet@locale@2@PEBV42@@Z DD imagerel $LN7
	DD	imagerel $LN7+203
	DD	imagerel $unwind$?_Getcat@?$numpunct@_W@std@@SA_KPEAPEBVfacet@locale@2@PEBV42@@Z
pdata	ENDS
;	COMDAT pdata
pdata	SEGMENT
$pdata$??1?$numpunct@_W@std@@MEAA@XZ DD imagerel $LN3
	DD	imagerel $LN3+51
	DD	imagerel $unwind$??1?$numpunct@_W@std@@MEAA@XZ
pdata	ENDS
;	COMDAT pdata
pdata	SEGMENT
$pdata$?_Init@?$numpunct@_W@std@@IEAAXAEBV_Locinfo@2@_N@Z DD imagerel $LN7
	DD	imagerel $LN7+434
	DD	imagerel $unwind$?_Init@?$numpunct@_W@std@@IEAAXAEBV_Locinfo@2@_N@Z
pdata	ENDS
;	COMDAT pdata
pdata	SEGMENT
$pdata$?do_grouping@?$numpunct@_W@std@@MEBA?AV?$basic_string@DU?$char_traits@D@std@@V?$allocator@D@2@@2@XZ DD imagerel $LN3
	DD	imagerel $LN3+43
	DD	imagerel $unwind$?do_grouping@?$numpunct@_W@std@@MEBA?AV?$basic_string@DU?$char_traits@D@std@@V?$allocator@D@2@@2@XZ
pdata	ENDS
;	COMDAT pdata
pdata	SEGMENT
$pdata$?do_falsename@?$numpunct@_W@std@@MEBA?AV?$basic_string@_WU?$char_traits@_W@std@@V?$allocator@_W@2@@2@XZ DD imagerel $LN3
	DD	imagerel $LN3+43
	DD	imagerel $unwind$?do_falsename@?$numpunct@_W@std@@MEBA?AV?$basic_string@_WU?$char_traits@_W@std@@V?$allocator@_W@2@@2@XZ
pdata	ENDS
;	COMDAT pdata
pdata	SEGMENT
$pdata$?do_truename@?$numpunct@_W@std@@MEBA?AV?$basic_string@_WU?$char_traits@_W@std@@V?$allocator@_W@2@@2@XZ DD imagerel $LN3
	DD	imagerel $LN3+43
	DD	imagerel $unwind$?do_truename@?$numpunct@_W@std@@MEBA?AV?$basic_string@_WU?$char_traits@_W@std@@V?$allocator@_W@2@@2@XZ
pdata	ENDS
;	COMDAT pdata
pdata	SEGMENT
$pdata$?_Tidy@?$numpunct@_W@std@@AEAAXXZ DD imagerel $LN3
	DD	imagerel $LN3+57
	DD	imagerel $unwind$?_Tidy@?$numpunct@_W@std@@AEAAXXZ
pdata	ENDS
;	COMDAT pdata
pdata	SEGMENT
$pdata$??_G?$numpunct@_W@std@@MEAAPEAXI@Z DD imagerel $LN4
	DD	imagerel $LN4+60
	DD	imagerel $unwind$??_G?$numpunct@_W@std@@MEAAPEAXI@Z
pdata	ENDS
;	COMDAT pdata
pdata	SEGMENT
$pdata$??$_Construct_in_place@PEA_WAEAPEA_W@std@@YAXAEAPEA_W0@Z DD imagerel $LN3
	DD	imagerel $LN3+68
	DD	imagerel $unwind$??$_Construct_in_place@PEA_WAEAPEA_W@std@@YAXAEAPEA_W0@Z
pdata	ENDS
;	COMDAT pdata
pdata	SEGMENT
$pdata$??$max@_K@std@@YAAEB_KAEB_K0@Z DD imagerel $LN5
	DD	imagerel $LN5+71
	DD	imagerel $unwind$??$max@_K@std@@YAAEB_KAEB_K0@Z
pdata	ENDS
;	COMDAT pdata
pdata	SEGMENT
$pdata$??$_Deallocate@$0BA@@std@@YAXPEAX_K@Z DD imagerel $LN4
	DD	imagerel $LN4+62
	DD	imagerel $unwind$??$_Deallocate@$0BA@@std@@YAXPEAX_K@Z
pdata	ENDS
;	COMDAT pdata
pdata	SEGMENT
$pdata$??R<lambda_65e615be2a453ca0576c979606f46740>@@QEBA@QEADQEBD_K12@Z DD imagerel $LN3
	DD	imagerel $LN3+130
	DD	imagerel $unwind$??R<lambda_65e615be2a453ca0576c979606f46740>@@QEBA@QEADQEBD_K12@Z
pdata	ENDS
;	COMDAT pdata
pdata	SEGMENT
$pdata$??$_Reallocate_grow_by@V<lambda_65e615be2a453ca0576c979606f46740>@@PEBD_K@?$basic_string@DU?$char_traits@D@std@@V?$allocator@D@2@@std@@AEAAAEAV01@_KV<lambda_65e615be2a453ca0576c979606f46740>@@PEBD_K@Z DD imagerel $LN6
	DD	imagerel $LN6+450
	DD	imagerel $unwind$??$_Reallocate_grow_by@V<lambda_65e615be2a453ca0576c979606f46740>@@PEBD_K@?$basic_string@DU?$char_traits@D@std@@V?$allocator@D@2@@std@@AEAAAEAV01@_KV<lambda_65e615be2a453ca0576c979606f46740>@@PEBD_K@Z
pdata	ENDS
;	COMDAT pdata
pdata	SEGMENT
$pdata$??$_Construct_in_place@PEADAEAPEAD@std@@YAXAEAPEAD0@Z DD imagerel $LN3
	DD	imagerel $LN3+68
	DD	imagerel $unwind$??$_Construct_in_place@PEADAEAPEAD@std@@YAXAEAPEAD0@Z
pdata	ENDS
;	COMDAT pdata
pdata	SEGMENT
$pdata$??$use_facet@V?$ctype@_W@std@@@std@@YAAEBV?$ctype@_W@0@AEBVlocale@0@@Z DD imagerel $LN8
	DD	imagerel $LN8+255
	DD	imagerel $unwind$??$use_facet@V?$ctype@_W@std@@@std@@YAAEBV?$ctype@_W@0@AEBVlocale@0@@Z
pdata	ENDS
;	COMDAT pdata
pdata	SEGMENT
$pdata$??R<lambda_3fa8b2c8193a0f3144fc4b1b8f243931>@@QEBA@QEA_W_KQEB_W@Z DD imagerel $LN3
	DD	imagerel $LN3+85
	DD	imagerel $unwind$??R<lambda_3fa8b2c8193a0f3144fc4b1b8f243931>@@QEBA@QEA_W_KQEB_W@Z
pdata	ENDS
;	COMDAT pdata
pdata	SEGMENT
$pdata$??$_Reallocate_for@V<lambda_3fa8b2c8193a0f3144fc4b1b8f243931>@@PEB_W@?$basic_string@_WU?$char_traits@_W@std@@V?$allocator@_W@2@@std@@AEAAAEAV01@_KV<lambda_3fa8b2c8193a0f3144fc4b1b8f243931>@@PEB_W@Z DD imagerel $LN6
	DD	imagerel $LN6+266
	DD	imagerel $unwind$??$_Reallocate_for@V<lambda_3fa8b2c8193a0f3144fc4b1b8f243931>@@PEB_W@?$basic_string@_WU?$char_traits@_W@std@@V?$allocator@_W@2@@std@@AEAAAEAV01@_KV<lambda_3fa8b2c8193a0f3144fc4b1b8f243931>@@PEB_W@Z
pdata	ENDS
;	COMDAT pdata
pdata	SEGMENT
$pdata$??R<lambda_1dfe18491bcca09701d8ccb01d0b0af4>@@QEBA@QEA_WQEB_W_K12@Z DD imagerel $LN3
	DD	imagerel $LN3+128
	DD	imagerel $unwind$??R<lambda_1dfe18491bcca09701d8ccb01d0b0af4>@@QEBA@QEA_WQEB_W_K12@Z
pdata	ENDS
;	COMDAT pdata
pdata	SEGMENT
$pdata$??$_Reallocate_grow_by@V<lambda_1dfe18491bcca09701d8ccb01d0b0af4>@@PEB_W_K@?$basic_string@_WU?$char_traits@_W@std@@V?$allocator@_W@2@@std@@AEAAAEAV01@_KV<lambda_1dfe18491bcca09701d8ccb01d0b0af4>@@PEB_W_K@Z DD imagerel $LN6
	DD	imagerel $LN6+450
	DD	imagerel $unwind$??$_Reallocate_grow_by@V<lambda_1dfe18491bcca09701d8ccb01d0b0af4>@@PEB_W_K@?$basic_string@_WU?$char_traits@_W@std@@V?$allocator@_W@2@@std@@AEAAAEAV01@_KV<lambda_1dfe18491bcca09701d8ccb01d0b0af4>@@PEB_W_K@Z
pdata	ENDS
;	COMDAT pdata
pdata	SEGMENT
$pdata$??$?0AEBV?$allocator@_W@std@@$$V@?$_Compressed_pair@V?$allocator@_W@std@@V?$_String_val@U?$_Simple_types@_W@std@@@2@$00@std@@QEAA@U_One_then_variadic_args_t@1@AEBV?$allocator@_W@1@@Z DD imagerel $LN3
	DD	imagerel $LN3+52
	DD	imagerel $unwind$??$?0AEBV?$allocator@_W@std@@$$V@?$_Compressed_pair@V?$allocator@_W@std@@V?$_String_val@U?$_Simple_types@_W@std@@@2@$00@std@@QEAA@U_One_then_variadic_args_t@1@AEBV?$allocator@_W@1@@Z
pdata	ENDS
;	COMDAT pdata
pdata	SEGMENT
$pdata$??R<lambda_51c4cb9729979bd953fe6d1bff5c73b0>@@QEBA@QEA_WQEB_W_K22_W@Z DD imagerel $LN3
	DD	imagerel $LN3+163
	DD	imagerel $unwind$??R<lambda_51c4cb9729979bd953fe6d1bff5c73b0>@@QEBA@QEA_WQEB_W_K22_W@Z
pdata	ENDS
;	COMDAT pdata
pdata	SEGMENT
$pdata$??$_Reallocate_grow_by@V<lambda_51c4cb9729979bd953fe6d1bff5c73b0>@@_K_K_W@?$basic_string@_WU?$char_traits@_W@std@@V?$allocator@_W@2@@std@@AEAAAEAV01@_KV<lambda_51c4cb9729979bd953fe6d1bff5c73b0>@@_K2_W@Z DD imagerel $LN6
	DD	imagerel $LN6+485
	DD	imagerel $unwind$??$_Reallocate_grow_by@V<lambda_51c4cb9729979bd953fe6d1bff5c73b0>@@_K_K_W@?$basic_string@_WU?$char_traits@_W@std@@V?$allocator@_W@2@@std@@AEAAAEAV01@_KV<lambda_51c4cb9729979bd953fe6d1bff5c73b0>@@_K2_W@Z
pdata	ENDS
;	COMDAT pdata
pdata	SEGMENT
$pdata$??$_Pocma@V?$allocator@_W@std@@@std@@YAXAEAV?$allocator@_W@0@0@Z DD imagerel $LN3
	DD	imagerel $LN3+30
	DD	imagerel $unwind$??$_Pocma@V?$allocator@_W@std@@@std@@YAXAEAV?$allocator@_W@0@0@Z
pdata	ENDS
;	COMDAT pdata
pdata	SEGMENT
$pdata$??R<lambda_e1befb086ad3257e3f042a63030725f7>@@QEBA@QEADQEBD_K2D@Z DD imagerel $LN3
	DD	imagerel $LN3+131
	DD	imagerel $unwind$??R<lambda_e1befb086ad3257e3f042a63030725f7>@@QEBA@QEADQEBD_K2D@Z
pdata	ENDS
;	COMDAT pdata
pdata	SEGMENT
$pdata$??$_Reallocate_grow_by@V<lambda_e1befb086ad3257e3f042a63030725f7>@@_KD@?$basic_string@DU?$char_traits@D@std@@V?$allocator@D@2@@std@@AEAAAEAV01@_KV<lambda_e1befb086ad3257e3f042a63030725f7>@@_KD@Z DD imagerel $LN6
	DD	imagerel $LN6+448
	DD	imagerel $unwind$??$_Reallocate_grow_by@V<lambda_e1befb086ad3257e3f042a63030725f7>@@_KD@?$basic_string@DU?$char_traits@D@std@@V?$allocator@D@2@@std@@AEAAAEAV01@_KV<lambda_e1befb086ad3257e3f042a63030725f7>@@_KD@Z
pdata	ENDS
;	COMDAT pdata
pdata	SEGMENT
$pdata$??$?0PEA_W$0A@@?$basic_string@_WU?$char_traits@_W@std@@V?$allocator@_W@2@@std@@QEAA@PEA_W0AEBV?$allocator@_W@1@@Z DD imagerel $LN5
	DD	imagerel $LN5+174
	DD	imagerel $unwind$??$?0PEA_W$0A@@?$basic_string@_WU?$char_traits@_W@std@@V?$allocator@_W@2@@std@@QEAA@PEA_W0AEBV?$allocator@_W@1@@Z
pdata	ENDS
;	COMDAT pdata
pdata	SEGMENT
$pdata$??$_UIntegral_to_buff@_WK@std@@YAPEA_WPEA_WK@Z DD imagerel $LN6
	DD	imagerel $LN6+90
	DD	imagerel $unwind$??$_UIntegral_to_buff@_WK@std@@YAPEA_WPEA_WK@Z
pdata	ENDS
;	COMDAT pdata
pdata	SEGMENT
$pdata$??$min@_K@std@@YAAEB_KAEB_K0@Z DD imagerel $LN5
	DD	imagerel $LN5+71
	DD	imagerel $unwind$??$min@_K@std@@YAAEB_KAEB_K0@Z
pdata	ENDS
;	COMDAT pdata
pdata	SEGMENT
$pdata$??R?$default_delete@V_Facet_base@std@@@std@@QEBAXPEAV_Facet_base@1@@Z DD imagerel $LN5
	DD	imagerel $LN5+73
	DD	imagerel $unwind$??R?$default_delete@V_Facet_base@std@@@std@@QEBAXPEAV_Facet_base@1@@Z
pdata	ENDS
;	COMDAT pdata
pdata	SEGMENT
$pdata$??1?$unique_ptr@V_Facet_base@std@@U?$default_delete@V_Facet_base@std@@@2@@std@@QEAA@XZ DD imagerel $LN4
	DD	imagerel $LN4+55
	DD	imagerel $unwind$??1?$unique_ptr@V_Facet_base@std@@U?$default_delete@V_Facet_base@std@@@2@@std@@QEAA@XZ
pdata	ENDS
;	COMDAT pdata
pdata	SEGMENT
$pdata$?release@?$unique_ptr@V_Facet_base@std@@U?$default_delete@V_Facet_base@std@@@2@@std@@QEAAPEAV_Facet_base@2@XZ DD imagerel $LN3
	DD	imagerel $LN3+41
	DD	imagerel $unwind$?release@?$unique_ptr@V_Facet_base@std@@U?$default_delete@V_Facet_base@std@@@2@@std@@QEAAPEAV_Facet_base@2@XZ
pdata	ENDS
;	COMDAT pdata
pdata	SEGMENT
$pdata$??$?0U?$default_delete@V_Facet_base@std@@@std@@$0A@@?$unique_ptr@V_Facet_base@std@@U?$default_delete@V_Facet_base@std@@@2@@std@@QEAA@PEAV_Facet_base@1@@Z DD imagerel $LN3
	DD	imagerel $LN3+48
	DD	imagerel $unwind$??$?0U?$default_delete@V_Facet_base@std@@@std@@$0A@@?$unique_ptr@V_Facet_base@std@@U?$default_delete@V_Facet_base@std@@@2@@std@@QEAA@PEAV_Facet_base@1@@Z
pdata	ENDS
;	COMDAT pdata
pdata	SEGMENT
$pdata$??$_Allocate_for_capacity@$0A@@?$basic_string@_WU?$char_traits@_W@std@@V?$allocator@_W@2@@std@@CAPEA_WAEAV?$allocator@_W@1@AEA_K@Z DD imagerel $LN3
	DD	imagerel $LN3+91
	DD	imagerel $unwind$??$_Allocate_for_capacity@$0A@@?$basic_string@_WU?$char_traits@_W@std@@V?$allocator@_W@2@@std@@CAPEA_WAEAV?$allocator@_W@1@AEA_K@Z
pdata	ENDS
;	COMDAT pdata
pdata	SEGMENT
$pdata$??$_Construct_in_place@PEA_WAEBQEA_W@std@@YAXAEAPEA_WAEBQEA_W@Z DD imagerel $LN3
	DD	imagerel $LN3+68
	DD	imagerel $unwind$??$_Construct_in_place@PEA_WAEBQEA_W@std@@YAXAEAPEA_WAEBQEA_W@Z
pdata	ENDS
;	COMDAT pdata
pdata	SEGMENT
$pdata$??$_Allocate_for_capacity@$0A@@?$basic_string@DU?$char_traits@D@std@@V?$allocator@D@2@@std@@CAPEADAEAV?$allocator@D@1@AEA_K@Z DD imagerel $LN3
	DD	imagerel $LN3+91
	DD	imagerel $unwind$??$_Allocate_for_capacity@$0A@@?$basic_string@DU?$char_traits@D@std@@V?$allocator@D@2@@std@@CAPEADAEAV?$allocator@D@1@AEA_K@Z
pdata	ENDS
;	COMDAT pdata
pdata	SEGMENT
$pdata$??$_Construct_in_place@PEADAEBQEAD@std@@YAXAEAPEADAEBQEAD@Z DD imagerel $LN3
	DD	imagerel $LN3+68
	DD	imagerel $unwind$??$_Construct_in_place@PEADAEBQEAD@std@@YAXAEAPEADAEBQEAD@Z
pdata	ENDS
;	COMDAT pdata
pdata	SEGMENT
$pdata$??$exchange@PEAV_Facet_base@std@@$$T@std@@YAPEAV_Facet_base@0@AEAPEAV10@$$QEA$$T@Z DD imagerel $LN3
	DD	imagerel $LN3+51
	DD	imagerel $unwind$??$exchange@PEAV_Facet_base@std@@$$T@std@@YAPEAV_Facet_base@0@AEAPEAV10@$$QEA$$T@Z
pdata	ENDS
;	COMDAT pdata
pdata	SEGMENT
$pdata$??$_Max_limit@_J@std@@YA_JXZ DD imagerel $LN3
	DD	imagerel $LN3+27
	DD	imagerel $unwind$??$_Max_limit@_J@std@@YA_JXZ
pdata	ENDS
;	COMDAT pdata
pdata	SEGMENT
$pdata$??$_Get_size_of_n@$01@std@@YA_K_K@Z DD imagerel $LN4
	DD	imagerel $LN4+65
	DD	imagerel $unwind$??$_Get_size_of_n@$01@std@@YA_K_K@Z
pdata	ENDS
;	COMDAT pdata
pdata	SEGMENT
$pdata$??$_Allocate@$0BA@U_Default_allocate_traits@std@@@std@@YAPEAX_K@Z DD imagerel $LN5
	DD	imagerel $LN5+59
	DD	imagerel $unwind$??$_Allocate@$0BA@U_Default_allocate_traits@std@@@std@@YAPEAX_K@Z
pdata	ENDS
;	COMDAT pdata
pdata	SEGMENT
$pdata$??1?$_Tidy_guard@V?$numpunct@_W@std@@@std@@QEAA@XZ DD imagerel $LN4
	DD	imagerel $LN4+39
	DD	imagerel $unwind$??1?$_Tidy_guard@V?$numpunct@_W@std@@@std@@QEAA@XZ
pdata	ENDS
;	COMDAT pdata
pdata	SEGMENT
$pdata$??$_Maklocstr@D@std@@YAPEADPEBDPEADAEBU_Cvtvec@@@Z DD imagerel $LN7
	DD	imagerel $LN7+157
	DD	imagerel $unwind$??$_Maklocstr@D@std@@YAPEADPEBDPEADAEBU_Cvtvec@@@Z
pdata	ENDS
;	COMDAT pdata
pdata	SEGMENT
$pdata$??__E?id@?$num_put@_WV?$ostreambuf_iterator@_WU?$char_traits@_W@std@@@std@@@std@@2V0locale@2@A@@YAXXZ DD imagerel ??__E?id@?$num_put@_WV?$ostreambuf_iterator@_WU?$char_traits@_W@std@@@std@@@std@@2V0locale@2@A@@YAXXZ
	DD	imagerel ??__E?id@?$num_put@_WV?$ostreambuf_iterator@_WU?$char_traits@_W@std@@@std@@@std@@2V0locale@2@A@@YAXXZ+24
	DD	imagerel $unwind$??__E?id@?$num_put@_WV?$ostreambuf_iterator@_WU?$char_traits@_W@std@@@std@@@std@@2V0locale@2@A@@YAXXZ
pdata	ENDS
;	COMDAT pdata
pdata	SEGMENT
$pdata$??__E?id@?$numpunct@_W@std@@2V0locale@2@A@@YAXXZ DD imagerel ??__E?id@?$numpunct@_W@std@@2V0locale@2@A@@YAXXZ
	DD	imagerel ??__E?id@?$numpunct@_W@std@@2V0locale@2@A@@YAXXZ+24
	DD	imagerel $unwind$??__E?id@?$numpunct@_W@std@@2V0locale@2@A@@YAXXZ
pdata	ENDS
;	COMDAT pdata
pdata	SEGMENT
$pdata$??$_Construct@$00PEA_W@?$basic_string@_WU?$char_traits@_W@std@@V?$allocator@_W@2@@std@@AEAAXQEA_W_K@Z DD imagerel $LN5
	DD	imagerel $LN5+394
	DD	imagerel $unwind$??$_Construct@$00PEA_W@?$basic_string@_WU?$char_traits@_W@std@@V?$allocator@_W@2@@std@@AEAAXQEA_W_K@Z
pdata	ENDS
;	COMDAT pdata
pdata	SEGMENT
$pdata$??$?0AEAPEAV_Facet_base@std@@@?$_Compressed_pair@U?$default_delete@V_Facet_base@std@@@std@@PEAV_Facet_base@2@$00@std@@QEAA@U_Zero_then_variadic_args_t@1@AEAPEAV_Facet_base@1@@Z DD imagerel $LN3
	DD	imagerel $LN3+49
	DD	imagerel $unwind$??$?0AEAPEAV_Facet_base@std@@@?$_Compressed_pair@U?$default_delete@V_Facet_base@std@@@std@@PEAV_Facet_base@2@$00@std@@QEAA@U_Zero_then_variadic_args_t@1@AEAPEAV_Facet_base@1@@Z
pdata	ENDS
;	COMDAT pdata
pdata	SEGMENT
$pdata$??$_Allocate_at_least_helper@V?$allocator@D@std@@@std@@YAPEADAEAV?$allocator@D@0@AEA_K@Z DD imagerel $LN3
	DD	imagerel $LN3+37
	DD	imagerel $unwind$??$_Allocate_at_least_helper@V?$allocator@D@std@@@std@@YAPEADAEAV?$allocator@D@0@AEA_K@Z
pdata	ENDS
;	COMDAT pdata
pdata	SEGMENT
$pdata$??$_Allocate_manually_vector_aligned@U_Default_allocate_traits@std@@@std@@YAPEAX_K@Z DD imagerel $LN12
	DD	imagerel $LN12+135
	DD	imagerel $unwind$??$_Allocate_manually_vector_aligned@U_Default_allocate_traits@std@@@std@@YAPEAX_K@Z
pdata	ENDS
;	COMDAT pdata
pdata	SEGMENT
$pdata$??$_Get_size_of_n@$00@std@@YA_K_K@Z DD imagerel $LN3
	DD	imagerel $LN3+23
	DD	imagerel $unwind$??$_Get_size_of_n@$00@std@@YA_K_K@Z
pdata	ENDS
;	COMDAT CRT$XCU
CRT$XCU	SEGMENT
??id$initializer$@?$num_put@_WV?$ostreambuf_iterator@_WU?$char_traits@_W@std@@@std@@@std@@2P6AXXZEA@@3P6AXXZEA DQ FLAT:??__E?id@?$num_put@_WV?$ostreambuf_iterator@_WU?$char_traits@_W@std@@@std@@@std@@2V0locale@2@A@@YAXXZ ; ??id$initializer$@?$num_put@_WV?$ostreambuf_iterator@_WU?$char_traits@_W@std@@@std@@@std@@2P6AXXZEA@@3P6AXXZEA
CRT$XCU	ENDS
;	COMDAT __real@4202a05f20000000
CONST	SEGMENT
__real@4202a05f20000000 DQ 04202a05f20000000r	; 1e+10
CONST	ENDS
;	COMDAT ??_R1A@?0A@EA@?$numpunct@_W@std@@8
rdata$r	SEGMENT
??_R1A@?0A@EA@?$numpunct@_W@std@@8 DD imagerel ??_R0?AV?$numpunct@_W@std@@@8 ; std::numpunct<wchar_t>::`RTTI Base Class Descriptor at (0,-1,0,64)'
	DD	03H
	DD	00H
	DD	0ffffffffH
	DD	00H
	DD	040H
	DD	imagerel ??_R3?$numpunct@_W@std@@8
rdata$r	ENDS
;	COMDAT ??_R2?$numpunct@_W@std@@8
rdata$r	SEGMENT
??_R2?$numpunct@_W@std@@8 DD imagerel ??_R1A@?0A@EA@?$numpunct@_W@std@@8 ; std::numpunct<wchar_t>::`RTTI Base Class Array'
	DD	imagerel ??_R1A@?0A@EA@facet@locale@std@@8
	DD	imagerel ??_R1A@?0A@EA@_Facet_base@std@@8
	DD	imagerel ??_R17?0A@EA@_Crt_new_delete@std@@8
	ORG $+3
rdata$r	ENDS
;	COMDAT ??_R3?$numpunct@_W@std@@8
rdata$r	SEGMENT
??_R3?$numpunct@_W@std@@8 DD 00H			; std::numpunct<wchar_t>::`RTTI Class Hierarchy Descriptor'
	DD	01H
	DD	04H
	DD	imagerel ??_R2?$numpunct@_W@std@@8
rdata$r	ENDS
;	COMDAT ??_R0?AV?$numpunct@_W@std@@@8
data$rs	SEGMENT
??_R0?AV?$numpunct@_W@std@@@8 DQ FLAT:??_7type_info@@6B@ ; std::numpunct<wchar_t> `RTTI Type Descriptor'
	DQ	0000000000000000H
	DB	'.?AV?$numpunct@_W@std@@', 00H
data$rs	ENDS
;	COMDAT ??_R4?$numpunct@_W@std@@6B@
rdata$r	SEGMENT
??_R4?$numpunct@_W@std@@6B@ DD 01H			; std::numpunct<wchar_t>::`RTTI Complete Object Locator'
	DD	00H
	DD	00H
	DD	imagerel ??_R0?AV?$numpunct@_W@std@@@8
	DD	imagerel ??_R3?$numpunct@_W@std@@8
	DD	imagerel ??_R4?$numpunct@_W@std@@6B@
rdata$r	ENDS
;	COMDAT ??_R1A@?0A@EA@?$num_put@_WV?$ostreambuf_iterator@_WU?$char_traits@_W@std@@@std@@@std@@8
rdata$r	SEGMENT
??_R1A@?0A@EA@?$num_put@_WV?$ostreambuf_iterator@_WU?$char_traits@_W@std@@@std@@@std@@8 DD imagerel ??_R0?AV?$num_put@_WV?$ostreambuf_iterator@_WU?$char_traits@_W@std@@@std@@@std@@@8 ; std::num_put<wchar_t,std::ostreambuf_iterator<wchar_t,std::char_traits<wchar_t> > >::`RTTI Base Class Descriptor at (0,-1,0,64)'
	DD	03H
	DD	00H
	DD	0ffffffffH
	DD	00H
	DD	040H
	DD	imagerel ??_R3?$num_put@_WV?$ostreambuf_iterator@_WU?$char_traits@_W@std@@@std@@@std@@8
rdata$r	ENDS
;	COMDAT ??_R2?$num_put@_WV?$ostreambuf_iterator@_WU?$char_traits@_W@std@@@std@@@std@@8
rdata$r	SEGMENT
??_R2?$num_put@_WV?$ostreambuf_iterator@_WU?$char_traits@_W@std@@@std@@@std@@8 DD imagerel ??_R1A@?0A@EA@?$num_put@_WV?$ostreambuf_iterator@_WU?$char_traits@_W@std@@@std@@@std@@8 ; std::num_put<wchar_t,std::ostreambuf_iterator<wchar_t,std::char_traits<wchar_t> > >::`RTTI Base Class Array'
	DD	imagerel ??_R1A@?0A@EA@facet@locale@std@@8
	DD	imagerel ??_R1A@?0A@EA@_Facet_base@std@@8
	DD	imagerel ??_R17?0A@EA@_Crt_new_delete@std@@8
	ORG $+3
rdata$r	ENDS
;	COMDAT ??_R3?$num_put@_WV?$ostreambuf_iterator@_WU?$char_traits@_W@std@@@std@@@std@@8
rdata$r	SEGMENT
??_R3?$num_put@_WV?$ostreambuf_iterator@_WU?$char_traits@_W@std@@@std@@@std@@8 DD 00H ; std::num_put<wchar_t,std::ostreambuf_iterator<wchar_t,std::char_traits<wchar_t> > >::`RTTI Class Hierarchy Descriptor'
	DD	01H
	DD	04H
	DD	imagerel ??_R2?$num_put@_WV?$ostreambuf_iterator@_WU?$char_traits@_W@std@@@std@@@std@@8
rdata$r	ENDS
;	COMDAT ??_R0?AV?$num_put@_WV?$ostreambuf_iterator@_WU?$char_traits@_W@std@@@std@@@std@@@8
data$rs	SEGMENT
??_R0?AV?$num_put@_WV?$ostreambuf_iterator@_WU?$char_traits@_W@std@@@std@@@std@@@8 DQ FLAT:??_7type_info@@6B@ ; std::num_put<wchar_t,std::ostreambuf_iterator<wchar_t,std::char_traits<wchar_t> > > `RTTI Type Descriptor'
	DQ	0000000000000000H
	DB	'.?AV?$num_put@_WV?$ostreambuf_iterator@_WU?$char_traits@'
	DB	'_W@std@@@std@@@std@@', 00H
data$rs	ENDS
;	COMDAT ??_R4?$num_put@_WV?$ostreambuf_iterator@_WU?$char_traits@_W@std@@@std@@@std@@6B@
rdata$r	SEGMENT
??_R4?$num_put@_WV?$ostreambuf_iterator@_WU?$char_traits@_W@std@@@std@@@std@@6B@ DD 01H ; std::num_put<wchar_t,std::ostreambuf_iterator<wchar_t,std::char_traits<wchar_t> > >::`RTTI Complete Object Locator'
	DD	00H
	DD	00H
	DD	imagerel ??_R0?AV?$num_put@_WV?$ostreambuf_iterator@_WU?$char_traits@_W@std@@@std@@@std@@@8
	DD	imagerel ??_R3?$num_put@_WV?$ostreambuf_iterator@_WU?$char_traits@_W@std@@@std@@@std@@8
	DD	imagerel ??_R4?$num_put@_WV?$ostreambuf_iterator@_WU?$char_traits@_W@std@@@std@@@std@@6B@
rdata$r	ENDS
;	COMDAT ??_R1A@?0A@EA@failure@ios_base@std@@8
rdata$r	SEGMENT
??_R1A@?0A@EA@failure@ios_base@std@@8 DD imagerel ??_R0?AVfailure@ios_base@std@@@8 ; std::ios_base::failure::`RTTI Base Class Descriptor at (0,-1,0,64)'
	DD	04H
	DD	00H
	DD	0ffffffffH
	DD	00H
	DD	040H
	DD	imagerel ??_R3failure@ios_base@std@@8
rdata$r	ENDS
;	COMDAT ??_R2failure@ios_base@std@@8
rdata$r	SEGMENT
??_R2failure@ios_base@std@@8 DD imagerel ??_R1A@?0A@EA@failure@ios_base@std@@8 ; std::ios_base::failure::`RTTI Base Class Array'
	DD	imagerel ??_R1A@?0A@EA@system_error@std@@8
	DD	imagerel ??_R1A@?0A@EA@_System_error@std@@8
	DD	imagerel ??_R1A@?0A@EA@runtime_error@std@@8
	DD	imagerel ??_R1A@?0A@EA@exception@std@@8
	ORG $+3
rdata$r	ENDS
;	COMDAT ??_R3failure@ios_base@std@@8
rdata$r	SEGMENT
??_R3failure@ios_base@std@@8 DD 00H			; std::ios_base::failure::`RTTI Class Hierarchy Descriptor'
	DD	00H
	DD	05H
	DD	imagerel ??_R2failure@ios_base@std@@8
rdata$r	ENDS
;	COMDAT ??_R4failure@ios_base@std@@6B@
rdata$r	SEGMENT
??_R4failure@ios_base@std@@6B@ DD 01H			; std::ios_base::failure::`RTTI Complete Object Locator'
	DD	00H
	DD	00H
	DD	imagerel ??_R0?AVfailure@ios_base@std@@@8
	DD	imagerel ??_R3failure@ios_base@std@@8
	DD	imagerel ??_R4failure@ios_base@std@@6B@
rdata$r	ENDS
;	COMDAT ??_R1A@?0A@EA@?$ctype@_W@std@@8
rdata$r	SEGMENT
??_R1A@?0A@EA@?$ctype@_W@std@@8 DD imagerel ??_R0?AV?$ctype@_W@std@@@8 ; std::ctype<wchar_t>::`RTTI Base Class Descriptor at (0,-1,0,64)'
	DD	04H
	DD	00H
	DD	0ffffffffH
	DD	00H
	DD	040H
	DD	imagerel ??_R3?$ctype@_W@std@@8
rdata$r	ENDS
;	COMDAT ??_R2?$ctype@_W@std@@8
rdata$r	SEGMENT
??_R2?$ctype@_W@std@@8 DD imagerel ??_R1A@?0A@EA@?$ctype@_W@std@@8 ; std::ctype<wchar_t>::`RTTI Base Class Array'
	DD	imagerel ??_R1A@?0A@EA@ctype_base@std@@8
	DD	imagerel ??_R1A@?0A@EA@facet@locale@std@@8
	DD	imagerel ??_R1A@?0A@EA@_Facet_base@std@@8
	DD	imagerel ??_R17?0A@EA@_Crt_new_delete@std@@8
	ORG $+3
rdata$r	ENDS
;	COMDAT ??_R3?$ctype@_W@std@@8
rdata$r	SEGMENT
??_R3?$ctype@_W@std@@8 DD 00H				; std::ctype<wchar_t>::`RTTI Class Hierarchy Descriptor'
	DD	01H
	DD	05H
	DD	imagerel ??_R2?$ctype@_W@std@@8
rdata$r	ENDS
;	COMDAT ??_R0?AV?$ctype@_W@std@@@8
data$rs	SEGMENT
??_R0?AV?$ctype@_W@std@@@8 DQ FLAT:??_7type_info@@6B@	; std::ctype<wchar_t> `RTTI Type Descriptor'
	DQ	0000000000000000H
	DB	'.?AV?$ctype@_W@std@@', 00H
data$rs	ENDS
;	COMDAT ??_R4?$ctype@_W@std@@6B@
rdata$r	SEGMENT
??_R4?$ctype@_W@std@@6B@ DD 01H				; std::ctype<wchar_t>::`RTTI Complete Object Locator'
	DD	00H
	DD	00H
	DD	imagerel ??_R0?AV?$ctype@_W@std@@@8
	DD	imagerel ??_R3?$ctype@_W@std@@8
	DD	imagerel ??_R4?$ctype@_W@std@@6B@
rdata$r	ENDS
;	COMDAT ??_R1A@?0A@EA@ctype_base@std@@8
rdata$r	SEGMENT
??_R1A@?0A@EA@ctype_base@std@@8 DD imagerel ??_R0?AUctype_base@std@@@8 ; std::ctype_base::`RTTI Base Class Descriptor at (0,-1,0,64)'
	DD	03H
	DD	00H
	DD	0ffffffffH
	DD	00H
	DD	040H
	DD	imagerel ??_R3ctype_base@std@@8
rdata$r	ENDS
;	COMDAT ??_R2ctype_base@std@@8
rdata$r	SEGMENT
??_R2ctype_base@std@@8 DD imagerel ??_R1A@?0A@EA@ctype_base@std@@8 ; std::ctype_base::`RTTI Base Class Array'
	DD	imagerel ??_R1A@?0A@EA@facet@locale@std@@8
	DD	imagerel ??_R1A@?0A@EA@_Facet_base@std@@8
	DD	imagerel ??_R17?0A@EA@_Crt_new_delete@std@@8
	ORG $+3
rdata$r	ENDS
;	COMDAT ??_R3ctype_base@std@@8
rdata$r	SEGMENT
??_R3ctype_base@std@@8 DD 00H				; std::ctype_base::`RTTI Class Hierarchy Descriptor'
	DD	01H
	DD	04H
	DD	imagerel ??_R2ctype_base@std@@8
rdata$r	ENDS
;	COMDAT ??_R0?AUctype_base@std@@@8
data$rs	SEGMENT
??_R0?AUctype_base@std@@@8 DQ FLAT:??_7type_info@@6B@	; std::ctype_base `RTTI Type Descriptor'
	DQ	0000000000000000H
	DB	'.?AUctype_base@std@@', 00H
data$rs	ENDS
;	COMDAT ??_R4ctype_base@std@@6B@
rdata$r	SEGMENT
??_R4ctype_base@std@@6B@ DD 01H				; std::ctype_base::`RTTI Complete Object Locator'
	DD	00H
	DD	00H
	DD	imagerel ??_R0?AUctype_base@std@@@8
	DD	imagerel ??_R3ctype_base@std@@8
	DD	imagerel ??_R4ctype_base@std@@6B@
rdata$r	ENDS
;	COMDAT ??_R1A@?0A@EA@_Crt_new_delete@std@@8
rdata$r	SEGMENT
??_R1A@?0A@EA@_Crt_new_delete@std@@8 DD imagerel ??_R0?AU_Crt_new_delete@std@@@8 ; std::_Crt_new_delete::`RTTI Base Class Descriptor at (0,-1,0,64)'
	DD	00H
	DD	00H
	DD	0ffffffffH
	DD	00H
	DD	040H
	DD	imagerel ??_R3_Crt_new_delete@std@@8
rdata$r	ENDS
;	COMDAT ??_R2_Crt_new_delete@std@@8
rdata$r	SEGMENT
??_R2_Crt_new_delete@std@@8 DD imagerel ??_R1A@?0A@EA@_Crt_new_delete@std@@8 ; std::_Crt_new_delete::`RTTI Base Class Array'
	ORG $+3
rdata$r	ENDS
;	COMDAT ??_R3_Crt_new_delete@std@@8
rdata$r	SEGMENT
??_R3_Crt_new_delete@std@@8 DD 00H			; std::_Crt_new_delete::`RTTI Class Hierarchy Descriptor'
	DD	00H
	DD	01H
	DD	imagerel ??_R2_Crt_new_delete@std@@8
rdata$r	ENDS
;	COMDAT ??_R0?AU_Crt_new_delete@std@@@8
data$rs	SEGMENT
??_R0?AU_Crt_new_delete@std@@@8 DQ FLAT:??_7type_info@@6B@ ; std::_Crt_new_delete `RTTI Type Descriptor'
	DQ	0000000000000000H
	DB	'.?AU_Crt_new_delete@std@@', 00H
data$rs	ENDS
;	COMDAT ??_R17?0A@EA@_Crt_new_delete@std@@8
rdata$r	SEGMENT
??_R17?0A@EA@_Crt_new_delete@std@@8 DD imagerel ??_R0?AU_Crt_new_delete@std@@@8 ; std::_Crt_new_delete::`RTTI Base Class Descriptor at (8,-1,0,64)'
	DD	00H
	DD	08H
	DD	0ffffffffH
	DD	00H
	DD	040H
	DD	imagerel ??_R3_Crt_new_delete@std@@8
rdata$r	ENDS
;	COMDAT ??_R1A@?0A@EA@facet@locale@std@@8
rdata$r	SEGMENT
??_R1A@?0A@EA@facet@locale@std@@8 DD imagerel ??_R0?AVfacet@locale@std@@@8 ; std::locale::facet::`RTTI Base Class Descriptor at (0,-1,0,64)'
	DD	02H
	DD	00H
	DD	0ffffffffH
	DD	00H
	DD	040H
	DD	imagerel ??_R3facet@locale@std@@8
rdata$r	ENDS
;	COMDAT ??_R2facet@locale@std@@8
rdata$r	SEGMENT
??_R2facet@locale@std@@8 DD imagerel ??_R1A@?0A@EA@facet@locale@std@@8 ; std::locale::facet::`RTTI Base Class Array'
	DD	imagerel ??_R1A@?0A@EA@_Facet_base@std@@8
	DD	imagerel ??_R17?0A@EA@_Crt_new_delete@std@@8
	ORG $+3
rdata$r	ENDS
;	COMDAT ??_R3facet@locale@std@@8
rdata$r	SEGMENT
??_R3facet@locale@std@@8 DD 00H				; std::locale::facet::`RTTI Class Hierarchy Descriptor'
	DD	01H
	DD	03H
	DD	imagerel ??_R2facet@locale@std@@8
rdata$r	ENDS
;	COMDAT ??_R0?AVfacet@locale@std@@@8
data$rs	SEGMENT
??_R0?AVfacet@locale@std@@@8 DQ FLAT:??_7type_info@@6B@	; std::locale::facet `RTTI Type Descriptor'
	DQ	0000000000000000H
	DB	'.?AVfacet@locale@std@@', 00H
data$rs	ENDS
;	COMDAT ??_R4facet@locale@std@@6B@
rdata$r	SEGMENT
??_R4facet@locale@std@@6B@ DD 01H			; std::locale::facet::`RTTI Complete Object Locator'
	DD	00H
	DD	00H
	DD	imagerel ??_R0?AVfacet@locale@std@@@8
	DD	imagerel ??_R3facet@locale@std@@8
	DD	imagerel ??_R4facet@locale@std@@6B@
rdata$r	ENDS
;	COMDAT ??_R1A@?0A@EA@_Facet_base@std@@8
rdata$r	SEGMENT
??_R1A@?0A@EA@_Facet_base@std@@8 DD imagerel ??_R0?AV_Facet_base@std@@@8 ; std::_Facet_base::`RTTI Base Class Descriptor at (0,-1,0,64)'
	DD	00H
	DD	00H
	DD	0ffffffffH
	DD	00H
	DD	040H
	DD	imagerel ??_R3_Facet_base@std@@8
rdata$r	ENDS
;	COMDAT ??_R2_Facet_base@std@@8
rdata$r	SEGMENT
??_R2_Facet_base@std@@8 DD imagerel ??_R1A@?0A@EA@_Facet_base@std@@8 ; std::_Facet_base::`RTTI Base Class Array'
	ORG $+3
rdata$r	ENDS
;	COMDAT ??_R3_Facet_base@std@@8
rdata$r	SEGMENT
??_R3_Facet_base@std@@8 DD 00H				; std::_Facet_base::`RTTI Class Hierarchy Descriptor'
	DD	00H
	DD	01H
	DD	imagerel ??_R2_Facet_base@std@@8
rdata$r	ENDS
;	COMDAT ??_R0?AV_Facet_base@std@@@8
data$rs	SEGMENT
??_R0?AV_Facet_base@std@@@8 DQ FLAT:??_7type_info@@6B@	; std::_Facet_base `RTTI Type Descriptor'
	DQ	0000000000000000H
	DB	'.?AV_Facet_base@std@@', 00H
data$rs	ENDS
;	COMDAT ??_R4_Facet_base@std@@6B@
rdata$r	SEGMENT
??_R4_Facet_base@std@@6B@ DD 01H			; std::_Facet_base::`RTTI Complete Object Locator'
	DD	00H
	DD	00H
	DD	imagerel ??_R0?AV_Facet_base@std@@@8
	DD	imagerel ??_R3_Facet_base@std@@8
	DD	imagerel ??_R4_Facet_base@std@@6B@
rdata$r	ENDS
;	COMDAT ??_R1A@?0A@EA@bad_cast@std@@8
rdata$r	SEGMENT
??_R1A@?0A@EA@bad_cast@std@@8 DD imagerel ??_R0?AVbad_cast@std@@@8 ; std::bad_cast::`RTTI Base Class Descriptor at (0,-1,0,64)'
	DD	01H
	DD	00H
	DD	0ffffffffH
	DD	00H
	DD	040H
	DD	imagerel ??_R3bad_cast@std@@8
rdata$r	ENDS
;	COMDAT ??_R2bad_cast@std@@8
rdata$r	SEGMENT
??_R2bad_cast@std@@8 DD imagerel ??_R1A@?0A@EA@bad_cast@std@@8 ; std::bad_cast::`RTTI Base Class Array'
	DD	imagerel ??_R1A@?0A@EA@exception@std@@8
	ORG $+3
rdata$r	ENDS
;	COMDAT ??_R3bad_cast@std@@8
rdata$r	SEGMENT
??_R3bad_cast@std@@8 DD 00H				; std::bad_cast::`RTTI Class Hierarchy Descriptor'
	DD	00H
	DD	02H
	DD	imagerel ??_R2bad_cast@std@@8
rdata$r	ENDS
;	COMDAT ??_R4bad_cast@std@@6B@
rdata$r	SEGMENT
??_R4bad_cast@std@@6B@ DD 01H				; std::bad_cast::`RTTI Complete Object Locator'
	DD	00H
	DD	00H
	DD	imagerel ??_R0?AVbad_cast@std@@@8
	DD	imagerel ??_R3bad_cast@std@@8
	DD	imagerel ??_R4bad_cast@std@@6B@
rdata$r	ENDS
;	COMDAT ??_R1A@?0A@EA@_Iostream_error_category2@std@@8
rdata$r	SEGMENT
??_R1A@?0A@EA@_Iostream_error_category2@std@@8 DD imagerel ??_R0?AV_Iostream_error_category2@std@@@8 ; std::_Iostream_error_category2::`RTTI Base Class Descriptor at (0,-1,0,64)'
	DD	01H
	DD	00H
	DD	0ffffffffH
	DD	00H
	DD	040H
	DD	imagerel ??_R3_Iostream_error_category2@std@@8
rdata$r	ENDS
;	COMDAT ??_R2_Iostream_error_category2@std@@8
rdata$r	SEGMENT
??_R2_Iostream_error_category2@std@@8 DD imagerel ??_R1A@?0A@EA@_Iostream_error_category2@std@@8 ; std::_Iostream_error_category2::`RTTI Base Class Array'
	DD	imagerel ??_R1A@?0A@EA@error_category@std@@8
	ORG $+3
rdata$r	ENDS
;	COMDAT ??_R3_Iostream_error_category2@std@@8
rdata$r	SEGMENT
??_R3_Iostream_error_category2@std@@8 DD 00H		; std::_Iostream_error_category2::`RTTI Class Hierarchy Descriptor'
	DD	00H
	DD	02H
	DD	imagerel ??_R2_Iostream_error_category2@std@@8
rdata$r	ENDS
;	COMDAT ??_R0?AV_Iostream_error_category2@std@@@8
data$rs	SEGMENT
??_R0?AV_Iostream_error_category2@std@@@8 DQ FLAT:??_7type_info@@6B@ ; std::_Iostream_error_category2 `RTTI Type Descriptor'
	DQ	0000000000000000H
	DB	'.?AV_Iostream_error_category2@std@@', 00H
data$rs	ENDS
;	COMDAT ??_R4_Iostream_error_category2@std@@6B@
rdata$r	SEGMENT
??_R4_Iostream_error_category2@std@@6B@ DD 01H		; std::_Iostream_error_category2::`RTTI Complete Object Locator'
	DD	00H
	DD	00H
	DD	imagerel ??_R0?AV_Iostream_error_category2@std@@@8
	DD	imagerel ??_R3_Iostream_error_category2@std@@8
	DD	imagerel ??_R4_Iostream_error_category2@std@@6B@
rdata$r	ENDS
;	COMDAT ??_R1A@?0A@EA@system_error@std@@8
rdata$r	SEGMENT
??_R1A@?0A@EA@system_error@std@@8 DD imagerel ??_R0?AVsystem_error@std@@@8 ; std::system_error::`RTTI Base Class Descriptor at (0,-1,0,64)'
	DD	03H
	DD	00H
	DD	0ffffffffH
	DD	00H
	DD	040H
	DD	imagerel ??_R3system_error@std@@8
rdata$r	ENDS
;	COMDAT ??_R2system_error@std@@8
rdata$r	SEGMENT
??_R2system_error@std@@8 DD imagerel ??_R1A@?0A@EA@system_error@std@@8 ; std::system_error::`RTTI Base Class Array'
	DD	imagerel ??_R1A@?0A@EA@_System_error@std@@8
	DD	imagerel ??_R1A@?0A@EA@runtime_error@std@@8
	DD	imagerel ??_R1A@?0A@EA@exception@std@@8
	ORG $+3
rdata$r	ENDS
;	COMDAT ??_R3system_error@std@@8
rdata$r	SEGMENT
??_R3system_error@std@@8 DD 00H				; std::system_error::`RTTI Class Hierarchy Descriptor'
	DD	00H
	DD	04H
	DD	imagerel ??_R2system_error@std@@8
rdata$r	ENDS
;	COMDAT ??_R4system_error@std@@6B@
rdata$r	SEGMENT
??_R4system_error@std@@6B@ DD 01H			; std::system_error::`RTTI Complete Object Locator'
	DD	00H
	DD	00H
	DD	imagerel ??_R0?AVsystem_error@std@@@8
	DD	imagerel ??_R3system_error@std@@8
	DD	imagerel ??_R4system_error@std@@6B@
rdata$r	ENDS
;	COMDAT ??_R1A@?0A@EA@_System_error@std@@8
rdata$r	SEGMENT
??_R1A@?0A@EA@_System_error@std@@8 DD imagerel ??_R0?AV_System_error@std@@@8 ; std::_System_error::`RTTI Base Class Descriptor at (0,-1,0,64)'
	DD	02H
	DD	00H
	DD	0ffffffffH
	DD	00H
	DD	040H
	DD	imagerel ??_R3_System_error@std@@8
rdata$r	ENDS
;	COMDAT ??_R2_System_error@std@@8
rdata$r	SEGMENT
??_R2_System_error@std@@8 DD imagerel ??_R1A@?0A@EA@_System_error@std@@8 ; std::_System_error::`RTTI Base Class Array'
	DD	imagerel ??_R1A@?0A@EA@runtime_error@std@@8
	DD	imagerel ??_R1A@?0A@EA@exception@std@@8
	ORG $+3
rdata$r	ENDS
;	COMDAT ??_R3_System_error@std@@8
rdata$r	SEGMENT
??_R3_System_error@std@@8 DD 00H			; std::_System_error::`RTTI Class Hierarchy Descriptor'
	DD	00H
	DD	03H
	DD	imagerel ??_R2_System_error@std@@8
rdata$r	ENDS
;	COMDAT ??_R4_System_error@std@@6B@
rdata$r	SEGMENT
??_R4_System_error@std@@6B@ DD 01H			; std::_System_error::`RTTI Complete Object Locator'
	DD	00H
	DD	00H
	DD	imagerel ??_R0?AV_System_error@std@@@8
	DD	imagerel ??_R3_System_error@std@@8
	DD	imagerel ??_R4_System_error@std@@6B@
rdata$r	ENDS
;	COMDAT ??_R1A@?0A@EA@error_category@std@@8
rdata$r	SEGMENT
??_R1A@?0A@EA@error_category@std@@8 DD imagerel ??_R0?AVerror_category@std@@@8 ; std::error_category::`RTTI Base Class Descriptor at (0,-1,0,64)'
	DD	00H
	DD	00H
	DD	0ffffffffH
	DD	00H
	DD	040H
	DD	imagerel ??_R3error_category@std@@8
rdata$r	ENDS
;	COMDAT ??_R2error_category@std@@8
rdata$r	SEGMENT
??_R2error_category@std@@8 DD imagerel ??_R1A@?0A@EA@error_category@std@@8 ; std::error_category::`RTTI Base Class Array'
	ORG $+3
rdata$r	ENDS
;	COMDAT ??_R3error_category@std@@8
rdata$r	SEGMENT
??_R3error_category@std@@8 DD 00H			; std::error_category::`RTTI Class Hierarchy Descriptor'
	DD	00H
	DD	01H
	DD	imagerel ??_R2error_category@std@@8
rdata$r	ENDS
;	COMDAT ??_R0?AVerror_category@std@@@8
data$rs	SEGMENT
??_R0?AVerror_category@std@@@8 DQ FLAT:??_7type_info@@6B@ ; std::error_category `RTTI Type Descriptor'
	DQ	0000000000000000H
	DB	'.?AVerror_category@std@@', 00H
data$rs	ENDS
;	COMDAT ??_R1A@?0A@EA@runtime_error@std@@8
rdata$r	SEGMENT
??_R1A@?0A@EA@runtime_error@std@@8 DD imagerel ??_R0?AVruntime_error@std@@@8 ; std::runtime_error::`RTTI Base Class Descriptor at (0,-1,0,64)'
	DD	01H
	DD	00H
	DD	0ffffffffH
	DD	00H
	DD	040H
	DD	imagerel ??_R3runtime_error@std@@8
rdata$r	ENDS
;	COMDAT ??_R2runtime_error@std@@8
rdata$r	SEGMENT
??_R2runtime_error@std@@8 DD imagerel ??_R1A@?0A@EA@runtime_error@std@@8 ; std::runtime_error::`RTTI Base Class Array'
	DD	imagerel ??_R1A@?0A@EA@exception@std@@8
	ORG $+3
rdata$r	ENDS
;	COMDAT ??_R3runtime_error@std@@8
rdata$r	SEGMENT
??_R3runtime_error@std@@8 DD 00H			; std::runtime_error::`RTTI Class Hierarchy Descriptor'
	DD	00H
	DD	02H
	DD	imagerel ??_R2runtime_error@std@@8
rdata$r	ENDS
;	COMDAT ??_R4runtime_error@std@@6B@
rdata$r	SEGMENT
??_R4runtime_error@std@@6B@ DD 01H			; std::runtime_error::`RTTI Complete Object Locator'
	DD	00H
	DD	00H
	DD	imagerel ??_R0?AVruntime_error@std@@@8
	DD	imagerel ??_R3runtime_error@std@@8
	DD	imagerel ??_R4runtime_error@std@@6B@
rdata$r	ENDS
;	COMDAT ??_R4bad_alloc@std@@6B@
rdata$r	SEGMENT
??_R4bad_alloc@std@@6B@ DD 01H				; std::bad_alloc::`RTTI Complete Object Locator'
	DD	00H
	DD	00H
	DD	imagerel ??_R0?AVbad_alloc@std@@@8
	DD	imagerel ??_R3bad_alloc@std@@8
	DD	imagerel ??_R4bad_alloc@std@@6B@
rdata$r	ENDS
;	COMDAT ??_R2bad_alloc@std@@8
rdata$r	SEGMENT
??_R2bad_alloc@std@@8 DD imagerel ??_R1A@?0A@EA@bad_alloc@std@@8 ; std::bad_alloc::`RTTI Base Class Array'
	DD	imagerel ??_R1A@?0A@EA@exception@std@@8
	ORG $+3
rdata$r	ENDS
;	COMDAT ??_R3bad_alloc@std@@8
rdata$r	SEGMENT
??_R3bad_alloc@std@@8 DD 00H				; std::bad_alloc::`RTTI Class Hierarchy Descriptor'
	DD	00H
	DD	02H
	DD	imagerel ??_R2bad_alloc@std@@8
rdata$r	ENDS
;	COMDAT ??_R1A@?0A@EA@bad_alloc@std@@8
rdata$r	SEGMENT
??_R1A@?0A@EA@bad_alloc@std@@8 DD imagerel ??_R0?AVbad_alloc@std@@@8 ; std::bad_alloc::`RTTI Base Class Descriptor at (0,-1,0,64)'
	DD	01H
	DD	00H
	DD	0ffffffffH
	DD	00H
	DD	040H
	DD	imagerel ??_R3bad_alloc@std@@8
rdata$r	ENDS
;	COMDAT ??_R1A@?0A@EA@bad_array_new_length@std@@8
rdata$r	SEGMENT
??_R1A@?0A@EA@bad_array_new_length@std@@8 DD imagerel ??_R0?AVbad_array_new_length@std@@@8 ; std::bad_array_new_length::`RTTI Base Class Descriptor at (0,-1,0,64)'
	DD	02H
	DD	00H
	DD	0ffffffffH
	DD	00H
	DD	040H
	DD	imagerel ??_R3bad_array_new_length@std@@8
rdata$r	ENDS
;	COMDAT ??_R2bad_array_new_length@std@@8
rdata$r	SEGMENT
??_R2bad_array_new_length@std@@8 DD imagerel ??_R1A@?0A@EA@bad_array_new_length@std@@8 ; std::bad_array_new_length::`RTTI Base Class Array'
	DD	imagerel ??_R1A@?0A@EA@bad_alloc@std@@8
	DD	imagerel ??_R1A@?0A@EA@exception@std@@8
	ORG $+3
rdata$r	ENDS
;	COMDAT ??_R3bad_array_new_length@std@@8
rdata$r	SEGMENT
??_R3bad_array_new_length@std@@8 DD 00H			; std::bad_array_new_length::`RTTI Class Hierarchy Descriptor'
	DD	00H
	DD	03H
	DD	imagerel ??_R2bad_array_new_length@std@@8
rdata$r	ENDS
;	COMDAT ??_R4bad_array_new_length@std@@6B@
rdata$r	SEGMENT
??_R4bad_array_new_length@std@@6B@ DD 01H		; std::bad_array_new_length::`RTTI Complete Object Locator'
	DD	00H
	DD	00H
	DD	imagerel ??_R0?AVbad_array_new_length@std@@@8
	DD	imagerel ??_R3bad_array_new_length@std@@8
	DD	imagerel ??_R4bad_array_new_length@std@@6B@
rdata$r	ENDS
;	COMDAT ??_R1A@?0A@EA@exception@std@@8
rdata$r	SEGMENT
??_R1A@?0A@EA@exception@std@@8 DD imagerel ??_R0?AVexception@std@@@8 ; std::exception::`RTTI Base Class Descriptor at (0,-1,0,64)'
	DD	00H
	DD	00H
	DD	0ffffffffH
	DD	00H
	DD	040H
	DD	imagerel ??_R3exception@std@@8
rdata$r	ENDS
;	COMDAT ??_R2exception@std@@8
rdata$r	SEGMENT
??_R2exception@std@@8 DD imagerel ??_R1A@?0A@EA@exception@std@@8 ; std::exception::`RTTI Base Class Array'
	ORG $+3
rdata$r	ENDS
;	COMDAT ??_R3exception@std@@8
rdata$r	SEGMENT
??_R3exception@std@@8 DD 00H				; std::exception::`RTTI Class Hierarchy Descriptor'
	DD	00H
	DD	01H
	DD	imagerel ??_R2exception@std@@8
rdata$r	ENDS
;	COMDAT ??_R4exception@std@@6B@
rdata$r	SEGMENT
??_R4exception@std@@6B@ DD 01H				; std::exception::`RTTI Complete Object Locator'
	DD	00H
	DD	00H
	DD	imagerel ??_R0?AVexception@std@@@8
	DD	imagerel ??_R3exception@std@@8
	DD	imagerel ??_R4exception@std@@6B@
rdata$r	ENDS
;	COMDAT ??_R1A@?0A@EA@?$basic_stringstream@_WU?$char_traits@_W@std@@V?$allocator@_W@2@@std@@8
rdata$r	SEGMENT
??_R1A@?0A@EA@?$basic_stringstream@_WU?$char_traits@_W@std@@V?$allocator@_W@2@@std@@8 DD imagerel ??_R0?AV?$basic_stringstream@_WU?$char_traits@_W@std@@V?$allocator@_W@2@@std@@@8 ; std::basic_stringstream<wchar_t,std::char_traits<wchar_t>,std::allocator<wchar_t> >::`RTTI Base Class Descriptor at (0,-1,0,64)'
	DD	09H
	DD	00H
	DD	0ffffffffH
	DD	00H
	DD	040H
	DD	imagerel ??_R3?$basic_stringstream@_WU?$char_traits@_W@std@@V?$allocator@_W@2@@std@@8
rdata$r	ENDS
;	COMDAT ??_R2?$basic_stringstream@_WU?$char_traits@_W@std@@V?$allocator@_W@2@@std@@8
rdata$r	SEGMENT
??_R2?$basic_stringstream@_WU?$char_traits@_W@std@@V?$allocator@_W@2@@std@@8 DD imagerel ??_R1A@?0A@EA@?$basic_stringstream@_WU?$char_traits@_W@std@@V?$allocator@_W@2@@std@@8 ; std::basic_stringstream<wchar_t,std::char_traits<wchar_t>,std::allocator<wchar_t> >::`RTTI Base Class Array'
	DD	imagerel ??_R1A@?0A@EA@?$basic_iostream@_WU?$char_traits@_W@std@@@std@@8
	DD	imagerel ??_R1A@?0A@EA@?$basic_istream@_WU?$char_traits@_W@std@@@std@@8
	DD	imagerel ??_R1A@A@3FA@?$basic_ios@_WU?$char_traits@_W@std@@@std@@8
	DD	imagerel ??_R1A@A@3EA@ios_base@std@@8
	DD	imagerel ??_R17A@3EA@?$_Iosb@H@std@@8
	DD	imagerel ??_R1BA@?0A@EA@?$basic_ostream@_WU?$char_traits@_W@std@@@std@@8
	DD	imagerel ??_R1A@A@3FA@?$basic_ios@_WU?$char_traits@_W@std@@@std@@8
	DD	imagerel ??_R1A@A@3EA@ios_base@std@@8
	DD	imagerel ??_R17A@3EA@?$_Iosb@H@std@@8
	ORG $+3
rdata$r	ENDS
;	COMDAT ??_R3?$basic_stringstream@_WU?$char_traits@_W@std@@V?$allocator@_W@2@@std@@8
rdata$r	SEGMENT
??_R3?$basic_stringstream@_WU?$char_traits@_W@std@@V?$allocator@_W@2@@std@@8 DD 00H ; std::basic_stringstream<wchar_t,std::char_traits<wchar_t>,std::allocator<wchar_t> >::`RTTI Class Hierarchy Descriptor'
	DD	03H
	DD	0aH
	DD	imagerel ??_R2?$basic_stringstream@_WU?$char_traits@_W@std@@V?$allocator@_W@2@@std@@8
rdata$r	ENDS
;	COMDAT ??_R0?AV?$basic_stringstream@_WU?$char_traits@_W@std@@V?$allocator@_W@2@@std@@@8
data$rs	SEGMENT
??_R0?AV?$basic_stringstream@_WU?$char_traits@_W@std@@V?$allocator@_W@2@@std@@@8 DQ FLAT:??_7type_info@@6B@ ; std::basic_stringstream<wchar_t,std::char_traits<wchar_t>,std::allocator<wchar_t> > `RTTI Type Descriptor'
	DQ	0000000000000000H
	DB	'.?AV?$basic_stringstream@_WU?$char_traits@_W@std@@V?$all'
	DB	'ocator@_W@2@@std@@', 00H
data$rs	ENDS
;	COMDAT ??_R4?$basic_stringstream@_WU?$char_traits@_W@std@@V?$allocator@_W@2@@std@@6B@
rdata$r	SEGMENT
??_R4?$basic_stringstream@_WU?$char_traits@_W@std@@V?$allocator@_W@2@@std@@6B@ DD 01H ; std::basic_stringstream<wchar_t,std::char_traits<wchar_t>,std::allocator<wchar_t> >::`RTTI Complete Object Locator'
	DD	098H
	DD	04H
	DD	imagerel ??_R0?AV?$basic_stringstream@_WU?$char_traits@_W@std@@V?$allocator@_W@2@@std@@@8
	DD	imagerel ??_R3?$basic_stringstream@_WU?$char_traits@_W@std@@V?$allocator@_W@2@@std@@8
	DD	imagerel ??_R4?$basic_stringstream@_WU?$char_traits@_W@std@@V?$allocator@_W@2@@std@@6B@
rdata$r	ENDS
;	COMDAT ??_R1A@?0A@EA@?$basic_stringbuf@_WU?$char_traits@_W@std@@V?$allocator@_W@2@@std@@8
rdata$r	SEGMENT
??_R1A@?0A@EA@?$basic_stringbuf@_WU?$char_traits@_W@std@@V?$allocator@_W@2@@std@@8 DD imagerel ??_R0?AV?$basic_stringbuf@_WU?$char_traits@_W@std@@V?$allocator@_W@2@@std@@@8 ; std::basic_stringbuf<wchar_t,std::char_traits<wchar_t>,std::allocator<wchar_t> >::`RTTI Base Class Descriptor at (0,-1,0,64)'
	DD	01H
	DD	00H
	DD	0ffffffffH
	DD	00H
	DD	040H
	DD	imagerel ??_R3?$basic_stringbuf@_WU?$char_traits@_W@std@@V?$allocator@_W@2@@std@@8
rdata$r	ENDS
;	COMDAT ??_R2?$basic_stringbuf@_WU?$char_traits@_W@std@@V?$allocator@_W@2@@std@@8
rdata$r	SEGMENT
??_R2?$basic_stringbuf@_WU?$char_traits@_W@std@@V?$allocator@_W@2@@std@@8 DD imagerel ??_R1A@?0A@EA@?$basic_stringbuf@_WU?$char_traits@_W@std@@V?$allocator@_W@2@@std@@8 ; std::basic_stringbuf<wchar_t,std::char_traits<wchar_t>,std::allocator<wchar_t> >::`RTTI Base Class Array'
	DD	imagerel ??_R1A@?0A@EA@?$basic_streambuf@_WU?$char_traits@_W@std@@@std@@8
	ORG $+3
rdata$r	ENDS
;	COMDAT ??_R3?$basic_stringbuf@_WU?$char_traits@_W@std@@V?$allocator@_W@2@@std@@8
rdata$r	SEGMENT
??_R3?$basic_stringbuf@_WU?$char_traits@_W@std@@V?$allocator@_W@2@@std@@8 DD 00H ; std::basic_stringbuf<wchar_t,std::char_traits<wchar_t>,std::allocator<wchar_t> >::`RTTI Class Hierarchy Descriptor'
	DD	00H
	DD	02H
	DD	imagerel ??_R2?$basic_stringbuf@_WU?$char_traits@_W@std@@V?$allocator@_W@2@@std@@8
rdata$r	ENDS
;	COMDAT ??_R0?AV?$basic_stringbuf@_WU?$char_traits@_W@std@@V?$allocator@_W@2@@std@@@8
data$rs	SEGMENT
??_R0?AV?$basic_stringbuf@_WU?$char_traits@_W@std@@V?$allocator@_W@2@@std@@@8 DQ FLAT:??_7type_info@@6B@ ; std::basic_stringbuf<wchar_t,std::char_traits<wchar_t>,std::allocator<wchar_t> > `RTTI Type Descriptor'
	DQ	0000000000000000H
	DB	'.?AV?$basic_stringbuf@_WU?$char_traits@_W@std@@V?$alloca'
	DB	'tor@_W@2@@std@@', 00H
data$rs	ENDS
;	COMDAT ??_R4?$basic_stringbuf@_WU?$char_traits@_W@std@@V?$allocator@_W@2@@std@@6B@
rdata$r	SEGMENT
??_R4?$basic_stringbuf@_WU?$char_traits@_W@std@@V?$allocator@_W@2@@std@@6B@ DD 01H ; std::basic_stringbuf<wchar_t,std::char_traits<wchar_t>,std::allocator<wchar_t> >::`RTTI Complete Object Locator'
	DD	00H
	DD	00H
	DD	imagerel ??_R0?AV?$basic_stringbuf@_WU?$char_traits@_W@std@@V?$allocator@_W@2@@std@@@8
	DD	imagerel ??_R3?$basic_stringbuf@_WU?$char_traits@_W@std@@V?$allocator@_W@2@@std@@8
	DD	imagerel ??_R4?$basic_stringbuf@_WU?$char_traits@_W@std@@V?$allocator@_W@2@@std@@6B@
rdata$r	ENDS
;	COMDAT ??_R1BA@?0A@EA@?$basic_ostream@_WU?$char_traits@_W@std@@@std@@8
rdata$r	SEGMENT
??_R1BA@?0A@EA@?$basic_ostream@_WU?$char_traits@_W@std@@@std@@8 DD imagerel ??_R0?AV?$basic_ostream@_WU?$char_traits@_W@std@@@std@@@8 ; std::basic_ostream<wchar_t,std::char_traits<wchar_t> >::`RTTI Base Class Descriptor at (16,-1,0,64)'
	DD	03H
	DD	010H
	DD	0ffffffffH
	DD	00H
	DD	040H
	DD	imagerel ??_R3?$basic_ostream@_WU?$char_traits@_W@std@@@std@@8
rdata$r	ENDS
;	COMDAT ??_R1A@?0A@EA@?$basic_iostream@_WU?$char_traits@_W@std@@@std@@8
rdata$r	SEGMENT
??_R1A@?0A@EA@?$basic_iostream@_WU?$char_traits@_W@std@@@std@@8 DD imagerel ??_R0?AV?$basic_iostream@_WU?$char_traits@_W@std@@@std@@@8 ; std::basic_iostream<wchar_t,std::char_traits<wchar_t> >::`RTTI Base Class Descriptor at (0,-1,0,64)'
	DD	08H
	DD	00H
	DD	0ffffffffH
	DD	00H
	DD	040H
	DD	imagerel ??_R3?$basic_iostream@_WU?$char_traits@_W@std@@@std@@8
rdata$r	ENDS
;	COMDAT ??_R2?$basic_iostream@_WU?$char_traits@_W@std@@@std@@8
rdata$r	SEGMENT
??_R2?$basic_iostream@_WU?$char_traits@_W@std@@@std@@8 DD imagerel ??_R1A@?0A@EA@?$basic_iostream@_WU?$char_traits@_W@std@@@std@@8 ; std::basic_iostream<wchar_t,std::char_traits<wchar_t> >::`RTTI Base Class Array'
	DD	imagerel ??_R1A@?0A@EA@?$basic_istream@_WU?$char_traits@_W@std@@@std@@8
	DD	imagerel ??_R1A@A@3FA@?$basic_ios@_WU?$char_traits@_W@std@@@std@@8
	DD	imagerel ??_R1A@A@3EA@ios_base@std@@8
	DD	imagerel ??_R17A@3EA@?$_Iosb@H@std@@8
	DD	imagerel ??_R1BA@?0A@EA@?$basic_ostream@_WU?$char_traits@_W@std@@@std@@8
	DD	imagerel ??_R1A@A@3FA@?$basic_ios@_WU?$char_traits@_W@std@@@std@@8
	DD	imagerel ??_R1A@A@3EA@ios_base@std@@8
	DD	imagerel ??_R17A@3EA@?$_Iosb@H@std@@8
	ORG $+3
rdata$r	ENDS
;	COMDAT ??_R3?$basic_iostream@_WU?$char_traits@_W@std@@@std@@8
rdata$r	SEGMENT
??_R3?$basic_iostream@_WU?$char_traits@_W@std@@@std@@8 DD 00H ; std::basic_iostream<wchar_t,std::char_traits<wchar_t> >::`RTTI Class Hierarchy Descriptor'
	DD	03H
	DD	09H
	DD	imagerel ??_R2?$basic_iostream@_WU?$char_traits@_W@std@@@std@@8
rdata$r	ENDS
;	COMDAT ??_R0?AV?$basic_iostream@_WU?$char_traits@_W@std@@@std@@@8
data$rs	SEGMENT
??_R0?AV?$basic_iostream@_WU?$char_traits@_W@std@@@std@@@8 DQ FLAT:??_7type_info@@6B@ ; std::basic_iostream<wchar_t,std::char_traits<wchar_t> > `RTTI Type Descriptor'
	DQ	0000000000000000H
	DB	'.?AV?$basic_iostream@_WU?$char_traits@_W@std@@@std@@', 00H
data$rs	ENDS
;	COMDAT ??_R4?$basic_iostream@_WU?$char_traits@_W@std@@@std@@6B@
rdata$r	SEGMENT
??_R4?$basic_iostream@_WU?$char_traits@_W@std@@@std@@6B@ DD 01H ; std::basic_iostream<wchar_t,std::char_traits<wchar_t> >::`RTTI Complete Object Locator'
	DD	020H
	DD	04H
	DD	imagerel ??_R0?AV?$basic_iostream@_WU?$char_traits@_W@std@@@std@@@8
	DD	imagerel ??_R3?$basic_iostream@_WU?$char_traits@_W@std@@@std@@8
	DD	imagerel ??_R4?$basic_iostream@_WU?$char_traits@_W@std@@@std@@6B@
rdata$r	ENDS
;	COMDAT ??_R1A@?0A@EA@?$basic_ostream@_WU?$char_traits@_W@std@@@std@@8
rdata$r	SEGMENT
??_R1A@?0A@EA@?$basic_ostream@_WU?$char_traits@_W@std@@@std@@8 DD imagerel ??_R0?AV?$basic_ostream@_WU?$char_traits@_W@std@@@std@@@8 ; std::basic_ostream<wchar_t,std::char_traits<wchar_t> >::`RTTI Base Class Descriptor at (0,-1,0,64)'
	DD	03H
	DD	00H
	DD	0ffffffffH
	DD	00H
	DD	040H
	DD	imagerel ??_R3?$basic_ostream@_WU?$char_traits@_W@std@@@std@@8
rdata$r	ENDS
;	COMDAT ??_R2?$basic_ostream@_WU?$char_traits@_W@std@@@std@@8
rdata$r	SEGMENT
??_R2?$basic_ostream@_WU?$char_traits@_W@std@@@std@@8 DD imagerel ??_R1A@?0A@EA@?$basic_ostream@_WU?$char_traits@_W@std@@@std@@8 ; std::basic_ostream<wchar_t,std::char_traits<wchar_t> >::`RTTI Base Class Array'
	DD	imagerel ??_R1A@A@3FA@?$basic_ios@_WU?$char_traits@_W@std@@@std@@8
	DD	imagerel ??_R1A@A@3EA@ios_base@std@@8
	DD	imagerel ??_R17A@3EA@?$_Iosb@H@std@@8
	ORG $+3
rdata$r	ENDS
;	COMDAT ??_R3?$basic_ostream@_WU?$char_traits@_W@std@@@std@@8
rdata$r	SEGMENT
??_R3?$basic_ostream@_WU?$char_traits@_W@std@@@std@@8 DD 00H ; std::basic_ostream<wchar_t,std::char_traits<wchar_t> >::`RTTI Class Hierarchy Descriptor'
	DD	00H
	DD	04H
	DD	imagerel ??_R2?$basic_ostream@_WU?$char_traits@_W@std@@@std@@8
rdata$r	ENDS
;	COMDAT ??_R0?AV?$basic_ostream@_WU?$char_traits@_W@std@@@std@@@8
data$rs	SEGMENT
??_R0?AV?$basic_ostream@_WU?$char_traits@_W@std@@@std@@@8 DQ FLAT:??_7type_info@@6B@ ; std::basic_ostream<wchar_t,std::char_traits<wchar_t> > `RTTI Type Descriptor'
	DQ	0000000000000000H
	DB	'.?AV?$basic_ostream@_WU?$char_traits@_W@std@@@std@@', 00H
data$rs	ENDS
;	COMDAT ??_R4?$basic_ostream@_WU?$char_traits@_W@std@@@std@@6B@
rdata$r	SEGMENT
??_R4?$basic_ostream@_WU?$char_traits@_W@std@@@std@@6B@ DD 01H ; std::basic_ostream<wchar_t,std::char_traits<wchar_t> >::`RTTI Complete Object Locator'
	DD	010H
	DD	04H
	DD	imagerel ??_R0?AV?$basic_ostream@_WU?$char_traits@_W@std@@@std@@@8
	DD	imagerel ??_R3?$basic_ostream@_WU?$char_traits@_W@std@@@std@@8
	DD	imagerel ??_R4?$basic_ostream@_WU?$char_traits@_W@std@@@std@@6B@
rdata$r	ENDS
;	COMDAT ??_R17A@3EA@?$_Iosb@H@std@@8
rdata$r	SEGMENT
??_R17A@3EA@?$_Iosb@H@std@@8 DD imagerel ??_R0?AV?$_Iosb@H@std@@@8 ; std::_Iosb<int>::`RTTI Base Class Descriptor at (8,0,4,64)'
	DD	00H
	DD	08H
	DD	00H
	DD	04H
	DD	040H
	DD	imagerel ??_R3?$_Iosb@H@std@@8
rdata$r	ENDS
;	COMDAT ??_R1A@A@3EA@ios_base@std@@8
rdata$r	SEGMENT
??_R1A@A@3EA@ios_base@std@@8 DD imagerel ??_R0?AVios_base@std@@@8 ; std::ios_base::`RTTI Base Class Descriptor at (0,0,4,64)'
	DD	01H
	DD	00H
	DD	00H
	DD	04H
	DD	040H
	DD	imagerel ??_R3ios_base@std@@8
rdata$r	ENDS
;	COMDAT ??_R1A@A@3FA@?$basic_ios@_WU?$char_traits@_W@std@@@std@@8
rdata$r	SEGMENT
??_R1A@A@3FA@?$basic_ios@_WU?$char_traits@_W@std@@@std@@8 DD imagerel ??_R0?AV?$basic_ios@_WU?$char_traits@_W@std@@@std@@@8 ; std::basic_ios<wchar_t,std::char_traits<wchar_t> >::`RTTI Base Class Descriptor at (0,0,4,80)'
	DD	02H
	DD	00H
	DD	00H
	DD	04H
	DD	050H
	DD	imagerel ??_R3?$basic_ios@_WU?$char_traits@_W@std@@@std@@8
rdata$r	ENDS
;	COMDAT ??_R1A@?0A@EA@?$basic_istream@_WU?$char_traits@_W@std@@@std@@8
rdata$r	SEGMENT
??_R1A@?0A@EA@?$basic_istream@_WU?$char_traits@_W@std@@@std@@8 DD imagerel ??_R0?AV?$basic_istream@_WU?$char_traits@_W@std@@@std@@@8 ; std::basic_istream<wchar_t,std::char_traits<wchar_t> >::`RTTI Base Class Descriptor at (0,-1,0,64)'
	DD	03H
	DD	00H
	DD	0ffffffffH
	DD	00H
	DD	040H
	DD	imagerel ??_R3?$basic_istream@_WU?$char_traits@_W@std@@@std@@8
rdata$r	ENDS
;	COMDAT ??_R2?$basic_istream@_WU?$char_traits@_W@std@@@std@@8
rdata$r	SEGMENT
??_R2?$basic_istream@_WU?$char_traits@_W@std@@@std@@8 DD imagerel ??_R1A@?0A@EA@?$basic_istream@_WU?$char_traits@_W@std@@@std@@8 ; std::basic_istream<wchar_t,std::char_traits<wchar_t> >::`RTTI Base Class Array'
	DD	imagerel ??_R1A@A@3FA@?$basic_ios@_WU?$char_traits@_W@std@@@std@@8
	DD	imagerel ??_R1A@A@3EA@ios_base@std@@8
	DD	imagerel ??_R17A@3EA@?$_Iosb@H@std@@8
	ORG $+3
rdata$r	ENDS
;	COMDAT ??_R3?$basic_istream@_WU?$char_traits@_W@std@@@std@@8
rdata$r	SEGMENT
??_R3?$basic_istream@_WU?$char_traits@_W@std@@@std@@8 DD 00H ; std::basic_istream<wchar_t,std::char_traits<wchar_t> >::`RTTI Class Hierarchy Descriptor'
	DD	00H
	DD	04H
	DD	imagerel ??_R2?$basic_istream@_WU?$char_traits@_W@std@@@std@@8
rdata$r	ENDS
;	COMDAT ??_R0?AV?$basic_istream@_WU?$char_traits@_W@std@@@std@@@8
data$rs	SEGMENT
??_R0?AV?$basic_istream@_WU?$char_traits@_W@std@@@std@@@8 DQ FLAT:??_7type_info@@6B@ ; std::basic_istream<wchar_t,std::char_traits<wchar_t> > `RTTI Type Descriptor'
	DQ	0000000000000000H
	DB	'.?AV?$basic_istream@_WU?$char_traits@_W@std@@@std@@', 00H
data$rs	ENDS
;	COMDAT ??_R4?$basic_istream@_WU?$char_traits@_W@std@@@std@@6B@
rdata$r	SEGMENT
??_R4?$basic_istream@_WU?$char_traits@_W@std@@@std@@6B@ DD 01H ; std::basic_istream<wchar_t,std::char_traits<wchar_t> >::`RTTI Complete Object Locator'
	DD	018H
	DD	04H
	DD	imagerel ??_R0?AV?$basic_istream@_WU?$char_traits@_W@std@@@std@@@8
	DD	imagerel ??_R3?$basic_istream@_WU?$char_traits@_W@std@@@std@@8
	DD	imagerel ??_R4?$basic_istream@_WU?$char_traits@_W@std@@@std@@6B@
rdata$r	ENDS
;	COMDAT ??_R1A@?0A@EA@?$basic_streambuf@_WU?$char_traits@_W@std@@@std@@8
rdata$r	SEGMENT
